
packet_man.out:     file format elf64-x86-64


Disassembly of section .init:

0000000000401408 <_init>:
  401408:	48 83 ec 08          	sub    $0x8,%rsp
  40140c:	48 8b 05 e5 7b 20 00 	mov    0x207be5(%rip),%rax        # 608ff8 <_DYNAMIC+0x210>
  401413:	48 85 c0             	test   %rax,%rax
  401416:	74 05                	je     40141d <_init+0x15>
  401418:	e8 83 00 00 00       	callq  4014a0 <__gmon_start__@plt>
  40141d:	48 83 c4 08          	add    $0x8,%rsp
  401421:	c3                   	retq   

Disassembly of section .plt:

0000000000401430 <printf@plt-0x10>:
  401430:	ff 35 d2 7b 20 00    	pushq  0x207bd2(%rip)        # 609008 <_GLOBAL_OFFSET_TABLE_+0x8>
  401436:	ff 25 d4 7b 20 00    	jmpq   *0x207bd4(%rip)        # 609010 <_GLOBAL_OFFSET_TABLE_+0x10>
  40143c:	0f 1f 40 00          	nopl   0x0(%rax)

0000000000401440 <printf@plt>:
  401440:	ff 25 d2 7b 20 00    	jmpq   *0x207bd2(%rip)        # 609018 <_GLOBAL_OFFSET_TABLE_+0x18>
  401446:	68 00 00 00 00       	pushq  $0x0
  40144b:	e9 e0 ff ff ff       	jmpq   401430 <_init+0x28>

0000000000401450 <_ZNSolsEi@plt>:
  401450:	ff 25 ca 7b 20 00    	jmpq   *0x207bca(%rip)        # 609020 <_GLOBAL_OFFSET_TABLE_+0x20>
  401456:	68 01 00 00 00       	pushq  $0x1
  40145b:	e9 d0 ff ff ff       	jmpq   401430 <_init+0x28>

0000000000401460 <memset@plt>:
  401460:	ff 25 c2 7b 20 00    	jmpq   *0x207bc2(%rip)        # 609028 <_GLOBAL_OFFSET_TABLE_+0x28>
  401466:	68 02 00 00 00       	pushq  $0x2
  40146b:	e9 c0 ff ff ff       	jmpq   401430 <_init+0x28>

0000000000401470 <cudaFree@plt>:
  401470:	ff 25 ba 7b 20 00    	jmpq   *0x207bba(%rip)        # 609030 <_GLOBAL_OFFSET_TABLE_+0x30>
  401476:	68 03 00 00 00       	pushq  $0x3
  40147b:	e9 b0 ff ff ff       	jmpq   401430 <_init+0x28>

0000000000401480 <ioctl@plt>:
  401480:	ff 25 b2 7b 20 00    	jmpq   *0x207bb2(%rip)        # 609038 <_GLOBAL_OFFSET_TABLE_+0x38>
  401486:	68 04 00 00 00       	pushq  $0x4
  40148b:	e9 a0 ff ff ff       	jmpq   401430 <_init+0x28>

0000000000401490 <__fprintf_chk@plt>:
  401490:	ff 25 aa 7b 20 00    	jmpq   *0x207baa(%rip)        # 609040 <_GLOBAL_OFFSET_TABLE_+0x40>
  401496:	68 05 00 00 00       	pushq  $0x5
  40149b:	e9 90 ff ff ff       	jmpq   401430 <_init+0x28>

00000000004014a0 <__gmon_start__@plt>:
  4014a0:	ff 25 a2 7b 20 00    	jmpq   *0x207ba2(%rip)        # 609048 <_GLOBAL_OFFSET_TABLE_+0x48>
  4014a6:	68 06 00 00 00       	pushq  $0x6
  4014ab:	e9 80 ff ff ff       	jmpq   401430 <_init+0x28>

00000000004014b0 <puts@plt>:
  4014b0:	ff 25 9a 7b 20 00    	jmpq   *0x207b9a(%rip)        # 609050 <_GLOBAL_OFFSET_TABLE_+0x50>
  4014b6:	68 07 00 00 00       	pushq  $0x7
  4014bb:	e9 70 ff ff ff       	jmpq   401430 <_init+0x28>

00000000004014c0 <htons@plt>:
  4014c0:	ff 25 92 7b 20 00    	jmpq   *0x207b92(%rip)        # 609058 <_GLOBAL_OFFSET_TABLE_+0x58>
  4014c6:	68 08 00 00 00       	pushq  $0x8
  4014cb:	e9 60 ff ff ff       	jmpq   401430 <_init+0x28>

00000000004014d0 <exit@plt>:
  4014d0:	ff 25 8a 7b 20 00    	jmpq   *0x207b8a(%rip)        # 609060 <_GLOBAL_OFFSET_TABLE_+0x60>
  4014d6:	68 09 00 00 00       	pushq  $0x9
  4014db:	e9 50 ff ff ff       	jmpq   401430 <_init+0x28>

00000000004014e0 <__cudaRegisterFunction@plt>:
  4014e0:	ff 25 82 7b 20 00    	jmpq   *0x207b82(%rip)        # 609068 <_GLOBAL_OFFSET_TABLE_+0x68>
  4014e6:	68 0a 00 00 00       	pushq  $0xa
  4014eb:	e9 40 ff ff ff       	jmpq   401430 <_init+0x28>

00000000004014f0 <cudaGetLastError@plt>:
  4014f0:	ff 25 7a 7b 20 00    	jmpq   *0x207b7a(%rip)        # 609070 <_GLOBAL_OFFSET_TABLE_+0x70>
  4014f6:	68 0b 00 00 00       	pushq  $0xb
  4014fb:	e9 30 ff ff ff       	jmpq   401430 <_init+0x28>

0000000000401500 <putchar@plt>:
  401500:	ff 25 72 7b 20 00    	jmpq   *0x207b72(%rip)        # 609078 <_GLOBAL_OFFSET_TABLE_+0x78>
  401506:	68 0c 00 00 00       	pushq  $0xc
  40150b:	e9 20 ff ff ff       	jmpq   401430 <_init+0x28>

0000000000401510 <_ZNSt8ios_base4InitC1Ev@plt>:
  401510:	ff 25 6a 7b 20 00    	jmpq   *0x207b6a(%rip)        # 609080 <_GLOBAL_OFFSET_TABLE_+0x80>
  401516:	68 0d 00 00 00       	pushq  $0xd
  40151b:	e9 10 ff ff ff       	jmpq   401430 <_init+0x28>

0000000000401520 <malloc@plt>:
  401520:	ff 25 62 7b 20 00    	jmpq   *0x207b62(%rip)        # 609088 <_GLOBAL_OFFSET_TABLE_+0x88>
  401526:	68 0e 00 00 00       	pushq  $0xe
  40152b:	e9 00 ff ff ff       	jmpq   401430 <_init+0x28>

0000000000401530 <__libc_start_main@plt>:
  401530:	ff 25 5a 7b 20 00    	jmpq   *0x207b5a(%rip)        # 609090 <_GLOBAL_OFFSET_TABLE_+0x90>
  401536:	68 0f 00 00 00       	pushq  $0xf
  40153b:	e9 f0 fe ff ff       	jmpq   401430 <_init+0x28>

0000000000401540 <__cxa_atexit@plt>:
  401540:	ff 25 52 7b 20 00    	jmpq   *0x207b52(%rip)        # 609098 <_GLOBAL_OFFSET_TABLE_+0x98>
  401546:	68 10 00 00 00       	pushq  $0x10
  40154b:	e9 e0 fe ff ff       	jmpq   401430 <_init+0x28>

0000000000401550 <pthread_mutex_init@plt>:
  401550:	ff 25 4a 7b 20 00    	jmpq   *0x207b4a(%rip)        # 6090a0 <_GLOBAL_OFFSET_TABLE_+0xa0>
  401556:	68 11 00 00 00       	pushq  $0x11
  40155b:	e9 d0 fe ff ff       	jmpq   401430 <_init+0x28>

0000000000401560 <_ZNSt8ios_base4InitD1Ev@plt>:
  401560:	ff 25 42 7b 20 00    	jmpq   *0x207b42(%rip)        # 6090a8 <_GLOBAL_OFFSET_TABLE_+0xa8>
  401566:	68 12 00 00 00       	pushq  $0x12
  40156b:	e9 c0 fe ff ff       	jmpq   401430 <_init+0x28>

0000000000401570 <_ZStlsISt11char_traitsIcEERSt13basic_ostreamIcT_ES5_PKc@plt>:
  401570:	ff 25 3a 7b 20 00    	jmpq   *0x207b3a(%rip)        # 6090b0 <_GLOBAL_OFFSET_TABLE_+0xb0>
  401576:	68 13 00 00 00       	pushq  $0x13
  40157b:	e9 b0 fe ff ff       	jmpq   401430 <_init+0x28>

0000000000401580 <vfprintf@plt>:
  401580:	ff 25 32 7b 20 00    	jmpq   *0x207b32(%rip)        # 6090b8 <_GLOBAL_OFFSET_TABLE_+0xb8>
  401586:	68 14 00 00 00       	pushq  $0x14
  40158b:	e9 a0 fe ff ff       	jmpq   401430 <_init+0x28>

0000000000401590 <cudaSetupArgument@plt>:
  401590:	ff 25 2a 7b 20 00    	jmpq   *0x207b2a(%rip)        # 6090c0 <_GLOBAL_OFFSET_TABLE_+0xc0>
  401596:	68 15 00 00 00       	pushq  $0x15
  40159b:	e9 90 fe ff ff       	jmpq   401430 <_init+0x28>

00000000004015a0 <cudaConfigureCall@plt>:
  4015a0:	ff 25 22 7b 20 00    	jmpq   *0x207b22(%rip)        # 6090c8 <_GLOBAL_OFFSET_TABLE_+0xc8>
  4015a6:	68 16 00 00 00       	pushq  $0x16
  4015ab:	e9 80 fe ff ff       	jmpq   401430 <_init+0x28>

00000000004015b0 <free@plt>:
  4015b0:	ff 25 1a 7b 20 00    	jmpq   *0x207b1a(%rip)        # 6090d0 <_GLOBAL_OFFSET_TABLE_+0xd0>
  4015b6:	68 17 00 00 00       	pushq  $0x17
  4015bb:	e9 70 fe ff ff       	jmpq   401430 <_init+0x28>

00000000004015c0 <__cudaUnregisterFatBinary@plt>:
  4015c0:	ff 25 12 7b 20 00    	jmpq   *0x207b12(%rip)        # 6090d8 <_GLOBAL_OFFSET_TABLE_+0xd8>
  4015c6:	68 18 00 00 00       	pushq  $0x18
  4015cb:	e9 60 fe ff ff       	jmpq   401430 <_init+0x28>

00000000004015d0 <_ZNSolsEPKv@plt>:
  4015d0:	ff 25 0a 7b 20 00    	jmpq   *0x207b0a(%rip)        # 6090e0 <_GLOBAL_OFFSET_TABLE_+0xe0>
  4015d6:	68 19 00 00 00       	pushq  $0x19
  4015db:	e9 50 fe ff ff       	jmpq   401430 <_init+0x28>

00000000004015e0 <cudaGetErrorString@plt>:
  4015e0:	ff 25 02 7b 20 00    	jmpq   *0x207b02(%rip)        # 6090e8 <_GLOBAL_OFFSET_TABLE_+0xe8>
  4015e6:	68 1a 00 00 00       	pushq  $0x1a
  4015eb:	e9 40 fe ff ff       	jmpq   401430 <_init+0x28>

00000000004015f0 <cudaLaunch@plt>:
  4015f0:	ff 25 fa 7a 20 00    	jmpq   *0x207afa(%rip)        # 6090f0 <_GLOBAL_OFFSET_TABLE_+0xf0>
  4015f6:	68 1b 00 00 00       	pushq  $0x1b
  4015fb:	e9 30 fe ff ff       	jmpq   401430 <_init+0x28>

0000000000401600 <ntohs@plt>:
  401600:	ff 25 f2 7a 20 00    	jmpq   *0x207af2(%rip)        # 6090f8 <_GLOBAL_OFFSET_TABLE_+0xf8>
  401606:	68 1c 00 00 00       	pushq  $0x1c
  40160b:	e9 20 fe ff ff       	jmpq   401430 <_init+0x28>

0000000000401610 <_ZNSolsEm@plt>:
  401610:	ff 25 ea 7a 20 00    	jmpq   *0x207aea(%rip)        # 609100 <_GLOBAL_OFFSET_TABLE_+0x100>
  401616:	68 1d 00 00 00       	pushq  $0x1d
  40161b:	e9 10 fe ff ff       	jmpq   401430 <_init+0x28>

0000000000401620 <cudaGetDeviceCount@plt>:
  401620:	ff 25 e2 7a 20 00    	jmpq   *0x207ae2(%rip)        # 609108 <_GLOBAL_OFFSET_TABLE_+0x108>
  401626:	68 1e 00 00 00       	pushq  $0x1e
  40162b:	e9 00 fe ff ff       	jmpq   401430 <_init+0x28>

0000000000401630 <usleep@plt>:
  401630:	ff 25 da 7a 20 00    	jmpq   *0x207ada(%rip)        # 609110 <_GLOBAL_OFFSET_TABLE_+0x110>
  401636:	68 1f 00 00 00       	pushq  $0x1f
  40163b:	e9 f0 fd ff ff       	jmpq   401430 <_init+0x28>

0000000000401640 <cudaGetDeviceProperties@plt>:
  401640:	ff 25 d2 7a 20 00    	jmpq   *0x207ad2(%rip)        # 609118 <_GLOBAL_OFFSET_TABLE_+0x118>
  401646:	68 20 00 00 00       	pushq  $0x20
  40164b:	e9 e0 fd ff ff       	jmpq   401430 <_init+0x28>

0000000000401650 <__cudaInitModule@plt>:
  401650:	ff 25 ca 7a 20 00    	jmpq   *0x207aca(%rip)        # 609120 <_GLOBAL_OFFSET_TABLE_+0x120>
  401656:	68 21 00 00 00       	pushq  $0x21
  40165b:	e9 d0 fd ff ff       	jmpq   401430 <_init+0x28>

0000000000401660 <atoi@plt>:
  401660:	ff 25 c2 7a 20 00    	jmpq   *0x207ac2(%rip)        # 609128 <_GLOBAL_OFFSET_TABLE_+0x128>
  401666:	68 22 00 00 00       	pushq  $0x22
  40166b:	e9 c0 fd ff ff       	jmpq   401430 <_init+0x28>

0000000000401670 <cudaSetDevice@plt>:
  401670:	ff 25 ba 7a 20 00    	jmpq   *0x207aba(%rip)        # 609130 <_GLOBAL_OFFSET_TABLE_+0x130>
  401676:	68 23 00 00 00       	pushq  $0x23
  40167b:	e9 b0 fd ff ff       	jmpq   401430 <_init+0x28>

0000000000401680 <__cudaRegisterFatBinary@plt>:
  401680:	ff 25 b2 7a 20 00    	jmpq   *0x207ab2(%rip)        # 609138 <_GLOBAL_OFFSET_TABLE_+0x138>
  401686:	68 24 00 00 00       	pushq  $0x24
  40168b:	e9 a0 fd ff ff       	jmpq   401430 <_init+0x28>

0000000000401690 <getenv@plt>:
  401690:	ff 25 aa 7a 20 00    	jmpq   *0x207aaa(%rip)        # 609140 <_GLOBAL_OFFSET_TABLE_+0x140>
  401696:	68 25 00 00 00       	pushq  $0x25
  40169b:	e9 90 fd ff ff       	jmpq   401430 <_init+0x28>

00000000004016a0 <cudaHostGetDevicePointer@plt>:
  4016a0:	ff 25 a2 7a 20 00    	jmpq   *0x207aa2(%rip)        # 609148 <_GLOBAL_OFFSET_TABLE_+0x148>
  4016a6:	68 26 00 00 00       	pushq  $0x26
  4016ab:	e9 80 fd ff ff       	jmpq   401430 <_init+0x28>

00000000004016b0 <__errno_location@plt>:
  4016b0:	ff 25 9a 7a 20 00    	jmpq   *0x207a9a(%rip)        # 609150 <_GLOBAL_OFFSET_TABLE_+0x150>
  4016b6:	68 27 00 00 00       	pushq  $0x27
  4016bb:	e9 70 fd ff ff       	jmpq   401430 <_init+0x28>

00000000004016c0 <__stack_chk_fail@plt>:
  4016c0:	ff 25 92 7a 20 00    	jmpq   *0x207a92(%rip)        # 609158 <_GLOBAL_OFFSET_TABLE_+0x158>
  4016c6:	68 28 00 00 00       	pushq  $0x28
  4016cb:	e9 60 fd ff ff       	jmpq   401430 <_init+0x28>

00000000004016d0 <calloc@plt>:
  4016d0:	ff 25 8a 7a 20 00    	jmpq   *0x207a8a(%rip)        # 609160 <_GLOBAL_OFFSET_TABLE_+0x160>
  4016d6:	68 29 00 00 00       	pushq  $0x29
  4016db:	e9 50 fd ff ff       	jmpq   401430 <_init+0x28>

00000000004016e0 <_ZNSolsEPFRSoS_E@plt>:
  4016e0:	ff 25 82 7a 20 00    	jmpq   *0x207a82(%rip)        # 609168 <_GLOBAL_OFFSET_TABLE_+0x168>
  4016e6:	68 2a 00 00 00       	pushq  $0x2a
  4016eb:	e9 40 fd ff ff       	jmpq   401430 <_init+0x28>

00000000004016f0 <cudaDeviceSynchronize@plt>:
  4016f0:	ff 25 7a 7a 20 00    	jmpq   *0x207a7a(%rip)        # 609170 <_GLOBAL_OFFSET_TABLE_+0x170>
  4016f6:	68 2b 00 00 00       	pushq  $0x2b
  4016fb:	e9 30 fd ff ff       	jmpq   401430 <_init+0x28>

0000000000401700 <_ZSt4endlIcSt11char_traitsIcEERSt13basic_ostreamIT_T0_ES6_@plt>:
  401700:	ff 25 72 7a 20 00    	jmpq   *0x207a72(%rip)        # 609178 <_GLOBAL_OFFSET_TABLE_+0x178>
  401706:	68 2c 00 00 00       	pushq  $0x2c
  40170b:	e9 20 fd ff ff       	jmpq   401430 <_init+0x28>

0000000000401710 <fwrite@plt>:
  401710:	ff 25 6a 7a 20 00    	jmpq   *0x207a6a(%rip)        # 609180 <_GLOBAL_OFFSET_TABLE_+0x180>
  401716:	68 2d 00 00 00       	pushq  $0x2d
  40171b:	e9 10 fd ff ff       	jmpq   401430 <_init+0x28>

0000000000401720 <htonl@plt>:
  401720:	ff 25 62 7a 20 00    	jmpq   *0x207a62(%rip)        # 609188 <_GLOBAL_OFFSET_TABLE_+0x188>
  401726:	68 2e 00 00 00       	pushq  $0x2e
  40172b:	e9 00 fd ff ff       	jmpq   401430 <_init+0x28>

0000000000401730 <pthread_mutex_lock@plt>:
  401730:	ff 25 5a 7a 20 00    	jmpq   *0x207a5a(%rip)        # 609190 <_GLOBAL_OFFSET_TABLE_+0x190>
  401736:	68 2f 00 00 00       	pushq  $0x2f
  40173b:	e9 f0 fc ff ff       	jmpq   401430 <_init+0x28>

0000000000401740 <cudaMemcpy@plt>:
  401740:	ff 25 52 7a 20 00    	jmpq   *0x207a52(%rip)        # 609198 <_GLOBAL_OFFSET_TABLE_+0x198>
  401746:	68 30 00 00 00       	pushq  $0x30
  40174b:	e9 e0 fc ff ff       	jmpq   401430 <_init+0x28>

0000000000401750 <cudaMalloc@plt>:
  401750:	ff 25 4a 7a 20 00    	jmpq   *0x207a4a(%rip)        # 6091a0 <_GLOBAL_OFFSET_TABLE_+0x1a0>
  401756:	68 31 00 00 00       	pushq  $0x31
  40175b:	e9 d0 fc ff ff       	jmpq   401430 <_init+0x28>

0000000000401760 <fprintf@plt>:
  401760:	ff 25 42 7a 20 00    	jmpq   *0x207a42(%rip)        # 6091a8 <_GLOBAL_OFFSET_TABLE_+0x1a8>
  401766:	68 32 00 00 00       	pushq  $0x32
  40176b:	e9 c0 fc ff ff       	jmpq   401430 <_init+0x28>

0000000000401770 <pthread_mutex_unlock@plt>:
  401770:	ff 25 3a 7a 20 00    	jmpq   *0x207a3a(%rip)        # 6091b0 <_GLOBAL_OFFSET_TABLE_+0x1b0>
  401776:	68 33 00 00 00       	pushq  $0x33
  40177b:	e9 b0 fc ff ff       	jmpq   401430 <_init+0x28>

0000000000401780 <memcpy@plt>:
  401780:	ff 25 32 7a 20 00    	jmpq   *0x207a32(%rip)        # 6091b8 <_GLOBAL_OFFSET_TABLE_+0x1b8>
  401786:	68 34 00 00 00       	pushq  $0x34
  40178b:	e9 a0 fc ff ff       	jmpq   401430 <_init+0x28>

0000000000401790 <_ZNSolsEPFRSt8ios_baseS0_E@plt>:
  401790:	ff 25 2a 7a 20 00    	jmpq   *0x207a2a(%rip)        # 6091c0 <_GLOBAL_OFFSET_TABLE_+0x1c0>
  401796:	68 35 00 00 00       	pushq  $0x35
  40179b:	e9 90 fc ff ff       	jmpq   401430 <_init+0x28>

00000000004017a0 <cuPointerSetAttribute@plt>:
  4017a0:	ff 25 22 7a 20 00    	jmpq   *0x207a22(%rip)        # 6091c8 <_GLOBAL_OFFSET_TABLE_+0x1c8>
  4017a6:	68 36 00 00 00       	pushq  $0x36
  4017ab:	e9 80 fc ff ff       	jmpq   401430 <_init+0x28>

00000000004017b0 <open@plt>:
  4017b0:	ff 25 1a 7a 20 00    	jmpq   *0x207a1a(%rip)        # 6091d0 <_GLOBAL_OFFSET_TABLE_+0x1d0>
  4017b6:	68 37 00 00 00       	pushq  $0x37
  4017bb:	e9 70 fc ff ff       	jmpq   401430 <_init+0x28>

00000000004017c0 <mmap@plt>:
  4017c0:	ff 25 12 7a 20 00    	jmpq   *0x207a12(%rip)        # 6091d8 <_GLOBAL_OFFSET_TABLE_+0x1d8>
  4017c6:	68 38 00 00 00       	pushq  $0x38
  4017cb:	e9 60 fc ff ff       	jmpq   401430 <_init+0x28>

00000000004017d0 <cudaHostRegister@plt>:
  4017d0:	ff 25 0a 7a 20 00    	jmpq   *0x207a0a(%rip)        # 6091e0 <_GLOBAL_OFFSET_TABLE_+0x1e0>
  4017d6:	68 39 00 00 00       	pushq  $0x39
  4017db:	e9 50 fc ff ff       	jmpq   401430 <_init+0x28>

Disassembly of section .text:

00000000004017e0 <_start>:
  4017e0:	31 ed                	xor    %ebp,%ebp
  4017e2:	49 89 d1             	mov    %rdx,%r9
  4017e5:	5e                   	pop    %rsi
  4017e6:	48 89 e2             	mov    %rsp,%rdx
  4017e9:	48 83 e4 f0          	and    $0xfffffffffffffff0,%rsp
  4017ed:	50                   	push   %rax
  4017ee:	54                   	push   %rsp
  4017ef:	49 c7 c0 90 3c 40 00 	mov    $0x403c90,%r8
  4017f6:	48 c7 c1 20 3c 40 00 	mov    $0x403c20,%rcx
  4017fd:	48 c7 c7 f4 2d 40 00 	mov    $0x402df4,%rdi
  401804:	e8 27 fd ff ff       	callq  401530 <__libc_start_main@plt>
  401809:	f4                   	hlt    
  40180a:	66 0f 1f 44 00 00    	nopw   0x0(%rax,%rax,1)

0000000000401810 <deregister_tm_clones>:
  401810:	b8 07 92 60 00       	mov    $0x609207,%eax
  401815:	55                   	push   %rbp
  401816:	48 2d 00 92 60 00    	sub    $0x609200,%rax
  40181c:	48 83 f8 0e          	cmp    $0xe,%rax
  401820:	48 89 e5             	mov    %rsp,%rbp
  401823:	77 02                	ja     401827 <deregister_tm_clones+0x17>
  401825:	5d                   	pop    %rbp
  401826:	c3                   	retq   
  401827:	b8 00 00 00 00       	mov    $0x0,%eax
  40182c:	48 85 c0             	test   %rax,%rax
  40182f:	74 f4                	je     401825 <deregister_tm_clones+0x15>
  401831:	5d                   	pop    %rbp
  401832:	bf 00 92 60 00       	mov    $0x609200,%edi
  401837:	ff e0                	jmpq   *%rax
  401839:	0f 1f 80 00 00 00 00 	nopl   0x0(%rax)

0000000000401840 <register_tm_clones>:
  401840:	b8 00 92 60 00       	mov    $0x609200,%eax
  401845:	55                   	push   %rbp
  401846:	48 2d 00 92 60 00    	sub    $0x609200,%rax
  40184c:	48 c1 f8 03          	sar    $0x3,%rax
  401850:	48 89 e5             	mov    %rsp,%rbp
  401853:	48 89 c2             	mov    %rax,%rdx
  401856:	48 c1 ea 3f          	shr    $0x3f,%rdx
  40185a:	48 01 d0             	add    %rdx,%rax
  40185d:	48 d1 f8             	sar    %rax
  401860:	75 02                	jne    401864 <register_tm_clones+0x24>
  401862:	5d                   	pop    %rbp
  401863:	c3                   	retq   
  401864:	ba 00 00 00 00       	mov    $0x0,%edx
  401869:	48 85 d2             	test   %rdx,%rdx
  40186c:	74 f4                	je     401862 <register_tm_clones+0x22>
  40186e:	5d                   	pop    %rbp
  40186f:	48 89 c6             	mov    %rax,%rsi
  401872:	bf 00 92 60 00       	mov    $0x609200,%edi
  401877:	ff e2                	jmpq   *%rdx
  401879:	0f 1f 80 00 00 00 00 	nopl   0x0(%rax)

0000000000401880 <__do_global_dtors_aux>:
  401880:	80 3d a1 7a 20 00 00 	cmpb   $0x0,0x207aa1(%rip)        # 609328 <completed.6973>
  401887:	75 11                	jne    40189a <__do_global_dtors_aux+0x1a>
  401889:	55                   	push   %rbp
  40188a:	48 89 e5             	mov    %rsp,%rbp
  40188d:	e8 7e ff ff ff       	callq  401810 <deregister_tm_clones>
  401892:	5d                   	pop    %rbp
  401893:	c6 05 8e 7a 20 00 01 	movb   $0x1,0x207a8e(%rip)        # 609328 <completed.6973>
  40189a:	f3 c3                	repz retq 
  40189c:	0f 1f 40 00          	nopl   0x0(%rax)

00000000004018a0 <frame_dummy>:
  4018a0:	48 83 3d 38 75 20 00 	cmpq   $0x0,0x207538(%rip)        # 608de0 <__JCR_END__>
  4018a7:	00 
  4018a8:	74 1e                	je     4018c8 <frame_dummy+0x28>
  4018aa:	b8 00 00 00 00       	mov    $0x0,%eax
  4018af:	48 85 c0             	test   %rax,%rax
  4018b2:	74 14                	je     4018c8 <frame_dummy+0x28>
  4018b4:	55                   	push   %rbp
  4018b5:	bf e0 8d 60 00       	mov    $0x608de0,%edi
  4018ba:	48 89 e5             	mov    %rsp,%rbp
  4018bd:	ff d0                	callq  *%rax
  4018bf:	5d                   	pop    %rbp
  4018c0:	e9 7b ff ff ff       	jmpq   401840 <register_tm_clones>
  4018c5:	0f 1f 00             	nopl   (%rax)
  4018c8:	e9 73 ff ff ff       	jmpq   401840 <register_tm_clones>

00000000004018cd <__cudaUnregisterBinaryUtil>:
  4018cd:	55                   	push   %rbp
  4018ce:	48 89 e5             	mov    %rsp,%rbp
  4018d1:	48 8b 05 58 7a 20 00 	mov    0x207a58(%rip),%rax        # 609330 <_ZL20__cudaFatCubinHandle>
  4018d8:	48 89 c7             	mov    %rax,%rdi
  4018db:	e8 e0 fc ff ff       	callq  4015c0 <__cudaUnregisterFatBinary@plt>
  4018e0:	5d                   	pop    %rbp
  4018e1:	c3                   	retq   

00000000004018e2 <_ZL37__nv_save_fatbinhandle_for_managed_rtPPv>:
  4018e2:	55                   	push   %rbp
  4018e3:	48 89 e5             	mov    %rsp,%rbp
  4018e6:	48 89 7d f8          	mov    %rdi,-0x8(%rbp)
  4018ea:	48 8b 45 f8          	mov    -0x8(%rbp),%rax
  4018ee:	48 89 05 53 7a 20 00 	mov    %rax,0x207a53(%rip)        # 609348 <_ZL32__nv_fatbinhandle_for_managed_rt>
  4018f5:	5d                   	pop    %rbp
  4018f6:	c3                   	retq   

00000000004018f7 <_ZL11compare_bufPjS_m>:
  4018f7:	55                   	push   %rbp
  4018f8:	48 89 e5             	mov    %rsp,%rbp
  4018fb:	48 83 ec 30          	sub    $0x30,%rsp
  4018ff:	48 89 7d e8          	mov    %rdi,-0x18(%rbp)
  401903:	48 89 75 e0          	mov    %rsi,-0x20(%rbp)
  401907:	48 89 55 d8          	mov    %rdx,-0x28(%rbp)
  40190b:	c7 45 f8 00 00 00 00 	movl   $0x0,-0x8(%rbp)
  401912:	48 8b 45 d8          	mov    -0x28(%rbp),%rax
  401916:	83 e0 03             	and    $0x3,%eax
  401919:	48 85 c0             	test   %rax,%rax
  40191c:	74 29                	je     401947 <_ZL11compare_bufPjS_m+0x50>
  40191e:	48 8b 05 fb 79 20 00 	mov    0x2079fb(%rip),%rax        # 609320 <stdout@@GLIBC_2.2.5>
  401925:	41 b8 3b 00 00 00    	mov    $0x3b,%r8d
  40192b:	b9 d0 3c 40 00       	mov    $0x403cd0,%ecx
  401930:	ba db 3c 40 00       	mov    $0x403cdb,%edx
  401935:	be f0 3c 40 00       	mov    $0x403cf0,%esi
  40193a:	48 89 c7             	mov    %rax,%rdi
  40193d:	b8 00 00 00 00       	mov    $0x0,%eax
  401942:	e8 19 fe ff ff       	callq  401760 <fprintf@plt>
  401947:	c7 45 fc 00 00 00 00 	movl   $0x0,-0x4(%rbp)
  40194e:	eb 76                	jmp    4019c6 <_ZL11compare_bufPjS_m+0xcf>
  401950:	8b 45 fc             	mov    -0x4(%rbp),%eax
  401953:	48 8d 14 85 00 00 00 	lea    0x0(,%rax,4),%rdx
  40195a:	00 
  40195b:	48 8b 45 e8          	mov    -0x18(%rbp),%rax
  40195f:	48 01 d0             	add    %rdx,%rax
  401962:	8b 10                	mov    (%rax),%edx
  401964:	8b 45 fc             	mov    -0x4(%rbp),%eax
  401967:	48 8d 0c 85 00 00 00 	lea    0x0(,%rax,4),%rcx
  40196e:	00 
  40196f:	48 8b 45 e0          	mov    -0x20(%rbp),%rax
  401973:	48 01 c8             	add    %rcx,%rax
  401976:	8b 00                	mov    (%rax),%eax
  401978:	39 c2                	cmp    %eax,%edx
  40197a:	74 46                	je     4019c2 <_ZL11compare_bufPjS_m+0xcb>
  40197c:	83 7d f8 09          	cmpl   $0x9,-0x8(%rbp)
  401980:	7f 3c                	jg     4019be <_ZL11compare_bufPjS_m+0xc7>
  401982:	8b 45 fc             	mov    -0x4(%rbp),%eax
  401985:	48 8d 14 85 00 00 00 	lea    0x0(,%rax,4),%rdx
  40198c:	00 
  40198d:	48 8b 45 e8          	mov    -0x18(%rbp),%rax
  401991:	48 01 d0             	add    %rdx,%rax
  401994:	8b 08                	mov    (%rax),%ecx
  401996:	8b 45 fc             	mov    -0x4(%rbp),%eax
  401999:	48 8d 14 85 00 00 00 	lea    0x0(,%rax,4),%rdx
  4019a0:	00 
  4019a1:	48 8b 45 e0          	mov    -0x20(%rbp),%rax
  4019a5:	48 01 d0             	add    %rdx,%rax
  4019a8:	8b 10                	mov    (%rax),%edx
  4019aa:	8b 45 fc             	mov    -0x4(%rbp),%eax
  4019ad:	89 c6                	mov    %eax,%esi
  4019af:	bf 10 3d 40 00       	mov    $0x403d10,%edi
  4019b4:	b8 00 00 00 00       	mov    $0x0,%eax
  4019b9:	e8 82 fa ff ff       	callq  401440 <printf@plt>
  4019be:	83 45 f8 01          	addl   $0x1,-0x8(%rbp)
  4019c2:	83 45 fc 01          	addl   $0x1,-0x4(%rbp)
  4019c6:	8b 45 fc             	mov    -0x4(%rbp),%eax
  4019c9:	48 8b 55 d8          	mov    -0x28(%rbp),%rdx
  4019cd:	48 c1 ea 02          	shr    $0x2,%rdx
  4019d1:	48 39 d0             	cmp    %rdx,%rax
  4019d4:	0f 82 76 ff ff ff    	jb     401950 <_ZL11compare_bufPjS_m+0x59>
  4019da:	83 7d f8 00          	cmpl   $0x0,-0x8(%rbp)
  4019de:	74 29                	je     401a09 <_ZL11compare_bufPjS_m+0x112>
  4019e0:	be 28 3d 40 00       	mov    $0x403d28,%esi
  4019e5:	bf 00 92 60 00       	mov    $0x609200,%edi
  4019ea:	e8 81 fb ff ff       	callq  401570 <_ZStlsISt11char_traitsIcEERSt13basic_ostreamIcT_ES5_PKc@plt>
  4019ef:	8b 55 f8             	mov    -0x8(%rbp),%edx
  4019f2:	89 d6                	mov    %edx,%esi
  4019f4:	48 89 c7             	mov    %rax,%rdi
  4019f7:	e8 54 fa ff ff       	callq  401450 <_ZNSolsEi@plt>
  4019fc:	be 00 17 40 00       	mov    $0x401700,%esi
  401a01:	48 89 c7             	mov    %rax,%rdi
  401a04:	e8 d7 fc ff ff       	callq  4016e0 <_ZNSolsEPFRSoS_E@plt>
  401a09:	c9                   	leaveq 
  401a0a:	c3                   	retq   

0000000000401a0b <_ZL21init_hbuf_walking_bitPjm>:
  401a0b:	55                   	push   %rbp
  401a0c:	48 89 e5             	mov    %rsp,%rbp
  401a0f:	48 83 ec 20          	sub    $0x20,%rsp
  401a13:	48 89 7d e8          	mov    %rdi,-0x18(%rbp)
  401a17:	48 89 75 e0          	mov    %rsi,-0x20(%rbp)
  401a1b:	c7 45 fc 6a 5e 4c 3f 	movl   $0x3f4c5e6a,-0x4(%rbp)
  401a22:	48 83 7d e8 00       	cmpq   $0x0,-0x18(%rbp)
  401a27:	75 29                	jne    401a52 <_ZL21init_hbuf_walking_bitPjm+0x47>
  401a29:	48 8b 05 f0 78 20 00 	mov    0x2078f0(%rip),%rax        # 609320 <stdout@@GLIBC_2.2.5>
  401a30:	41 b8 4e 00 00 00    	mov    $0x4e,%r8d
  401a36:	b9 d0 3c 40 00       	mov    $0x403cd0,%ecx
  401a3b:	ba 3e 3d 40 00       	mov    $0x403d3e,%edx
  401a40:	be f0 3c 40 00       	mov    $0x403cf0,%esi
  401a45:	48 89 c7             	mov    %rax,%rdi
  401a48:	b8 00 00 00 00       	mov    $0x0,%eax
  401a4d:	e8 0e fd ff ff       	callq  401760 <fprintf@plt>
  401a52:	48 8b 45 e0          	mov    -0x20(%rbp),%rax
  401a56:	83 e0 03             	and    $0x3,%eax
  401a59:	48 85 c0             	test   %rax,%rax
  401a5c:	74 29                	je     401a87 <_ZL21init_hbuf_walking_bitPjm+0x7c>
  401a5e:	48 8b 05 bb 78 20 00 	mov    0x2078bb(%rip),%rax        # 609320 <stdout@@GLIBC_2.2.5>
  401a65:	41 b8 4f 00 00 00    	mov    $0x4f,%r8d
  401a6b:	b9 d0 3c 40 00       	mov    $0x403cd0,%ecx
  401a70:	ba db 3c 40 00       	mov    $0x403cdb,%edx
  401a75:	be f0 3c 40 00       	mov    $0x403cf0,%esi
  401a7a:	48 89 c7             	mov    %rax,%rdi
  401a7d:	b8 00 00 00 00       	mov    $0x0,%eax
  401a82:	e8 d9 fc ff ff       	callq  401760 <fprintf@plt>
  401a87:	c7 45 f8 00 00 00 00 	movl   $0x0,-0x8(%rbp)
  401a8e:	eb 2c                	jmp    401abc <_ZL21init_hbuf_walking_bitPjm+0xb1>
  401a90:	8b 45 f8             	mov    -0x8(%rbp),%eax
  401a93:	48 8d 14 85 00 00 00 	lea    0x0(,%rax,4),%rdx
  401a9a:	00 
  401a9b:	48 8b 45 e8          	mov    -0x18(%rbp),%rax
  401a9f:	48 01 c2             	add    %rax,%rdx
  401aa2:	8b 45 f8             	mov    -0x8(%rbp),%eax
  401aa5:	83 e0 1f             	and    $0x1f,%eax
  401aa8:	be 01 00 00 00       	mov    $0x1,%esi
  401aad:	89 c1                	mov    %eax,%ecx
  401aaf:	d3 e6                	shl    %cl,%esi
  401ab1:	89 f0                	mov    %esi,%eax
  401ab3:	33 45 fc             	xor    -0x4(%rbp),%eax
  401ab6:	89 02                	mov    %eax,(%rdx)
  401ab8:	83 45 f8 01          	addl   $0x1,-0x8(%rbp)
  401abc:	8b 45 f8             	mov    -0x8(%rbp),%eax
  401abf:	48 8b 55 e0          	mov    -0x20(%rbp),%rdx
  401ac3:	48 c1 ea 02          	shr    $0x2,%rdx
  401ac7:	48 39 d0             	cmp    %rdx,%rax
  401aca:	72 c4                	jb     401a90 <_ZL21init_hbuf_walking_bitPjm+0x85>
  401acc:	c9                   	leaveq 
  401acd:	c3                   	retq   

0000000000401ace <_ZL21init_hbuf_linear_rampPjm>:
  401ace:	55                   	push   %rbp
  401acf:	48 89 e5             	mov    %rsp,%rbp
  401ad2:	48 83 ec 20          	sub    $0x20,%rsp
  401ad6:	48 89 7d e8          	mov    %rdi,-0x18(%rbp)
  401ada:	48 89 75 e0          	mov    %rsi,-0x20(%rbp)
  401ade:	48 83 7d e8 00       	cmpq   $0x0,-0x18(%rbp)
  401ae3:	75 29                	jne    401b0e <_ZL21init_hbuf_linear_rampPjm+0x40>
  401ae5:	48 8b 05 34 78 20 00 	mov    0x207834(%rip),%rax        # 609320 <stdout@@GLIBC_2.2.5>
  401aec:	41 b8 59 00 00 00    	mov    $0x59,%r8d
  401af2:	b9 d0 3c 40 00       	mov    $0x403cd0,%ecx
  401af7:	ba 3e 3d 40 00       	mov    $0x403d3e,%edx
  401afc:	be f0 3c 40 00       	mov    $0x403cf0,%esi
  401b01:	48 89 c7             	mov    %rax,%rdi
  401b04:	b8 00 00 00 00       	mov    $0x0,%eax
  401b09:	e8 52 fc ff ff       	callq  401760 <fprintf@plt>
  401b0e:	48 8b 45 e0          	mov    -0x20(%rbp),%rax
  401b12:	83 e0 03             	and    $0x3,%eax
  401b15:	48 85 c0             	test   %rax,%rax
  401b18:	74 29                	je     401b43 <_ZL21init_hbuf_linear_rampPjm+0x75>
  401b1a:	48 8b 05 ff 77 20 00 	mov    0x2077ff(%rip),%rax        # 609320 <stdout@@GLIBC_2.2.5>
  401b21:	41 b8 5a 00 00 00    	mov    $0x5a,%r8d
  401b27:	b9 d0 3c 40 00       	mov    $0x403cd0,%ecx
  401b2c:	ba db 3c 40 00       	mov    $0x403cdb,%edx
  401b31:	be f0 3c 40 00       	mov    $0x403cf0,%esi
  401b36:	48 89 c7             	mov    %rax,%rdi
  401b39:	b8 00 00 00 00       	mov    $0x0,%eax
  401b3e:	e8 1d fc ff ff       	callq  401760 <fprintf@plt>
  401b43:	c7 45 fc 00 00 00 00 	movl   $0x0,-0x4(%rbp)
  401b4a:	eb 1b                	jmp    401b67 <_ZL21init_hbuf_linear_rampPjm+0x99>
  401b4c:	8b 45 fc             	mov    -0x4(%rbp),%eax
  401b4f:	48 8d 14 85 00 00 00 	lea    0x0(,%rax,4),%rdx
  401b56:	00 
  401b57:	48 8b 45 e8          	mov    -0x18(%rbp),%rax
  401b5b:	48 01 c2             	add    %rax,%rdx
  401b5e:	8b 45 fc             	mov    -0x4(%rbp),%eax
  401b61:	89 02                	mov    %eax,(%rdx)
  401b63:	83 45 fc 01          	addl   $0x1,-0x4(%rbp)
  401b67:	8b 45 fc             	mov    -0x4(%rbp),%eax
  401b6a:	48 8b 55 e0          	mov    -0x20(%rbp),%rdx
  401b6e:	48 c1 ea 02          	shr    $0x2,%rdx
  401b72:	48 39 d0             	cmp    %rdx,%rax
  401b75:	72 d5                	jb     401b4c <_ZL21init_hbuf_linear_rampPjm+0x7e>
  401b77:	c9                   	leaveq 
  401b78:	c3                   	retq   

0000000000401b79 <_ZL6my_msg16mycopy_msg_levelPKcz>:
  401b79:	55                   	push   %rbp
  401b7a:	48 89 e5             	mov    %rsp,%rbp
  401b7d:	48 81 ec e0 00 00 00 	sub    $0xe0,%rsp
  401b84:	89 bd 2c ff ff ff    	mov    %edi,-0xd4(%rbp)
  401b8a:	48 89 95 60 ff ff ff 	mov    %rdx,-0xa0(%rbp)
  401b91:	48 89 8d 68 ff ff ff 	mov    %rcx,-0x98(%rbp)
  401b98:	4c 89 85 70 ff ff ff 	mov    %r8,-0x90(%rbp)
  401b9f:	4c 89 8d 78 ff ff ff 	mov    %r9,-0x88(%rbp)
  401ba6:	84 c0                	test   %al,%al
  401ba8:	74 20                	je     401bca <_ZL6my_msg16mycopy_msg_levelPKcz+0x51>
  401baa:	0f 29 45 80          	movaps %xmm0,-0x80(%rbp)
  401bae:	0f 29 4d 90          	movaps %xmm1,-0x70(%rbp)
  401bb2:	0f 29 55 a0          	movaps %xmm2,-0x60(%rbp)
  401bb6:	0f 29 5d b0          	movaps %xmm3,-0x50(%rbp)
  401bba:	0f 29 65 c0          	movaps %xmm4,-0x40(%rbp)
  401bbe:	0f 29 6d d0          	movaps %xmm5,-0x30(%rbp)
  401bc2:	0f 29 75 e0          	movaps %xmm6,-0x20(%rbp)
  401bc6:	0f 29 7d f0          	movaps %xmm7,-0x10(%rbp)
  401bca:	48 89 b5 20 ff ff ff 	mov    %rsi,-0xe0(%rbp)
  401bd1:	8b 05 25 76 20 00    	mov    0x207625(%rip),%eax        # 6091fc <_ZL17my_enable_logging>
  401bd7:	83 f8 ff             	cmp    $0xffffffff,%eax
  401bda:	75 61                	jne    401c3d <_ZL6my_msg16mycopy_msg_levelPKcz+0xc4>
  401bdc:	bf 54 3d 40 00       	mov    $0x403d54,%edi
  401be1:	e8 aa fa ff ff       	callq  401690 <getenv@plt>
  401be6:	48 89 85 30 ff ff ff 	mov    %rax,-0xd0(%rbp)
  401bed:	48 83 bd 30 ff ff ff 	cmpq   $0x0,-0xd0(%rbp)
  401bf4:	00 
  401bf5:	74 0c                	je     401c03 <_ZL6my_msg16mycopy_msg_levelPKcz+0x8a>
  401bf7:	c7 05 fb 75 20 00 01 	movl   $0x1,0x2075fb(%rip)        # 6091fc <_ZL17my_enable_logging>
  401bfe:	00 00 00 
  401c01:	eb 0a                	jmp    401c0d <_ZL6my_msg16mycopy_msg_levelPKcz+0x94>
  401c03:	c7 05 ef 75 20 00 00 	movl   $0x0,0x2075ef(%rip)        # 6091fc <_ZL17my_enable_logging>
  401c0a:	00 00 00 
  401c0d:	bf 6a 3d 40 00       	mov    $0x403d6a,%edi
  401c12:	e8 79 fa ff ff       	callq  401690 <getenv@plt>
  401c17:	48 89 85 30 ff ff ff 	mov    %rax,-0xd0(%rbp)
  401c1e:	48 83 bd 30 ff ff ff 	cmpq   $0x0,-0xd0(%rbp)
  401c25:	00 
  401c26:	74 15                	je     401c3d <_ZL6my_msg16mycopy_msg_levelPKcz+0xc4>
  401c28:	48 8b 85 30 ff ff ff 	mov    -0xd0(%rbp),%rax
  401c2f:	48 89 c7             	mov    %rax,%rdi
  401c32:	e8 29 fa ff ff       	callq  401660 <atoi@plt>
  401c37:	89 05 bb 75 20 00    	mov    %eax,0x2075bb(%rip)        # 6091f8 <_ZL12my_msg_level>
  401c3d:	8b 05 b9 75 20 00    	mov    0x2075b9(%rip),%eax        # 6091fc <_ZL17my_enable_logging>
  401c43:	85 c0                	test   %eax,%eax
  401c45:	74 5d                	je     401ca4 <_ZL6my_msg16mycopy_msg_levelPKcz+0x12b>
  401c47:	8b 95 2c ff ff ff    	mov    -0xd4(%rbp),%edx
  401c4d:	8b 05 a5 75 20 00    	mov    0x2075a5(%rip),%eax        # 6091f8 <_ZL12my_msg_level>
  401c53:	39 c2                	cmp    %eax,%edx
  401c55:	7c 4d                	jl     401ca4 <_ZL6my_msg16mycopy_msg_levelPKcz+0x12b>
  401c57:	c7 85 38 ff ff ff 10 	movl   $0x10,-0xc8(%rbp)
  401c5e:	00 00 00 
  401c61:	c7 85 3c ff ff ff 30 	movl   $0x30,-0xc4(%rbp)
  401c68:	00 00 00 
  401c6b:	48 8d 45 10          	lea    0x10(%rbp),%rax
  401c6f:	48 89 85 40 ff ff ff 	mov    %rax,-0xc0(%rbp)
  401c76:	48 8d 85 50 ff ff ff 	lea    -0xb0(%rbp),%rax
  401c7d:	48 89 85 48 ff ff ff 	mov    %rax,-0xb8(%rbp)
  401c84:	48 8b 05 85 76 20 00 	mov    0x207685(%rip),%rax        # 609310 <stderr@@GLIBC_2.2.5>
  401c8b:	48 8d 95 38 ff ff ff 	lea    -0xc8(%rbp),%rdx
  401c92:	48 8b 8d 20 ff ff ff 	mov    -0xe0(%rbp),%rcx
  401c99:	48 89 ce             	mov    %rcx,%rsi
  401c9c:	48 89 c7             	mov    %rax,%rdi
  401c9f:	e8 dc f8 ff ff       	callq  401580 <vfprintf@plt>
  401ca4:	c9                   	leaveq 
  401ca5:	c3                   	retq   

0000000000401ca6 <_Z15h_DumpARPPacketP6arphdr>:
  401ca6:	55                   	push   %rbp
  401ca7:	48 89 e5             	mov    %rsp,%rbp
  401caa:	53                   	push   %rbx
  401cab:	48 83 ec 48          	sub    $0x48,%rsp
  401caf:	48 89 7d d8          	mov    %rdi,-0x28(%rbp)
  401cb3:	bf 7b 3d 40 00       	mov    $0x403d7b,%edi
  401cb8:	e8 f3 f7 ff ff       	callq  4014b0 <puts@plt>
  401cbd:	48 8b 45 d8          	mov    -0x28(%rbp),%rax
  401cc1:	0f b7 40 06          	movzwl 0x6(%rax),%eax
  401cc5:	0f b7 c0             	movzwl %ax,%eax
  401cc8:	c1 e0 08             	shl    $0x8,%eax
  401ccb:	0f b7 d0             	movzwl %ax,%edx
  401cce:	48 8b 45 d8          	mov    -0x28(%rbp),%rax
  401cd2:	0f b7 40 06          	movzwl 0x6(%rax),%eax
  401cd6:	66 c1 e8 08          	shr    $0x8,%ax
  401cda:	0f b7 c0             	movzwl %ax,%eax
  401cdd:	09 c2                	or     %eax,%edx
  401cdf:	41 89 d0             	mov    %edx,%r8d
  401ce2:	48 8b 45 d8          	mov    -0x28(%rbp),%rax
  401ce6:	0f b6 40 05          	movzbl 0x5(%rax),%eax
  401cea:	0f b6 f8             	movzbl %al,%edi
  401ced:	48 8b 45 d8          	mov    -0x28(%rbp),%rax
  401cf1:	0f b7 40 02          	movzwl 0x2(%rax),%eax
  401cf5:	0f b7 c0             	movzwl %ax,%eax
  401cf8:	c1 e0 08             	shl    $0x8,%eax
  401cfb:	0f b7 d0             	movzwl %ax,%edx
  401cfe:	48 8b 45 d8          	mov    -0x28(%rbp),%rax
  401d02:	0f b7 40 02          	movzwl 0x2(%rax),%eax
  401d06:	66 c1 e8 08          	shr    $0x8,%ax
  401d0a:	0f b7 c0             	movzwl %ax,%eax
  401d0d:	89 d1                	mov    %edx,%ecx
  401d0f:	09 c1                	or     %eax,%ecx
  401d11:	48 8b 45 d8          	mov    -0x28(%rbp),%rax
  401d15:	0f b6 40 04          	movzbl 0x4(%rax),%eax
  401d19:	0f b6 c0             	movzbl %al,%eax
  401d1c:	48 8b 55 d8          	mov    -0x28(%rbp),%rdx
  401d20:	0f b7 12             	movzwl (%rdx),%edx
  401d23:	0f b7 d2             	movzwl %dx,%edx
  401d26:	c1 e2 08             	shl    $0x8,%edx
  401d29:	0f b7 f2             	movzwl %dx,%esi
  401d2c:	48 8b 55 d8          	mov    -0x28(%rbp),%rdx
  401d30:	0f b7 12             	movzwl (%rdx),%edx
  401d33:	66 c1 ea 08          	shr    $0x8,%dx
  401d37:	0f b7 d2             	movzwl %dx,%edx
  401d3a:	09 d6                	or     %edx,%esi
  401d3c:	45 89 c1             	mov    %r8d,%r9d
  401d3f:	41 89 f8             	mov    %edi,%r8d
  401d42:	89 c2                	mov    %eax,%edx
  401d44:	bf 88 3d 40 00       	mov    $0x403d88,%edi
  401d49:	b8 00 00 00 00       	mov    $0x0,%eax
  401d4e:	e8 ed f6 ff ff       	callq  401440 <printf@plt>
  401d53:	48 8b 45 d8          	mov    -0x28(%rbp),%rax
  401d57:	48 83 c0 0e          	add    $0xe,%rax
  401d5b:	48 89 45 e8          	mov    %rax,-0x18(%rbp)
  401d5f:	48 8b 45 d8          	mov    -0x28(%rbp),%rax
  401d63:	0f b6 40 0d          	movzbl 0xd(%rax),%eax
  401d67:	44 0f b6 d0          	movzbl %al,%r10d
  401d6b:	48 8b 45 d8          	mov    -0x28(%rbp),%rax
  401d6f:	0f b6 40 0c          	movzbl 0xc(%rax),%eax
  401d73:	44 0f b6 c8          	movzbl %al,%r9d
  401d77:	48 8b 45 d8          	mov    -0x28(%rbp),%rax
  401d7b:	0f b6 40 0b          	movzbl 0xb(%rax),%eax
  401d7f:	44 0f b6 c0          	movzbl %al,%r8d
  401d83:	48 8b 45 d8          	mov    -0x28(%rbp),%rax
  401d87:	0f b6 40 0a          	movzbl 0xa(%rax),%eax
  401d8b:	0f b6 f8             	movzbl %al,%edi
  401d8e:	48 8b 45 d8          	mov    -0x28(%rbp),%rax
  401d92:	0f b6 40 09          	movzbl 0x9(%rax),%eax
  401d96:	0f b6 f0             	movzbl %al,%esi
  401d99:	48 8b 45 d8          	mov    -0x28(%rbp),%rax
  401d9d:	0f b6 40 08          	movzbl 0x8(%rax),%eax
  401da1:	0f b6 d8             	movzbl %al,%ebx
  401da4:	48 8b 45 e8          	mov    -0x18(%rbp),%rax
  401da8:	48 83 c0 03          	add    $0x3,%rax
  401dac:	0f b6 00             	movzbl (%rax),%eax
  401daf:	44 0f b6 d8          	movzbl %al,%r11d
  401db3:	48 8b 45 e8          	mov    -0x18(%rbp),%rax
  401db7:	48 83 c0 02          	add    $0x2,%rax
  401dbb:	0f b6 00             	movzbl (%rax),%eax
  401dbe:	0f b6 c8             	movzbl %al,%ecx
  401dc1:	48 8b 45 e8          	mov    -0x18(%rbp),%rax
  401dc5:	48 83 c0 01          	add    $0x1,%rax
  401dc9:	0f b6 00             	movzbl (%rax),%eax
  401dcc:	0f b6 d0             	movzbl %al,%edx
  401dcf:	48 8b 45 e8          	mov    -0x18(%rbp),%rax
  401dd3:	0f b6 00             	movzbl (%rax),%eax
  401dd6:	0f b6 c0             	movzbl %al,%eax
  401dd9:	44 89 54 24 20       	mov    %r10d,0x20(%rsp)
  401dde:	44 89 4c 24 18       	mov    %r9d,0x18(%rsp)
  401de3:	44 89 44 24 10       	mov    %r8d,0x10(%rsp)
  401de8:	89 7c 24 08          	mov    %edi,0x8(%rsp)
  401dec:	89 34 24             	mov    %esi,(%rsp)
  401def:	41 89 d9             	mov    %ebx,%r9d
  401df2:	45 89 d8             	mov    %r11d,%r8d
  401df5:	89 c6                	mov    %eax,%esi
  401df7:	bf d0 3d 40 00       	mov    $0x403dd0,%edi
  401dfc:	b8 00 00 00 00       	mov    $0x0,%eax
  401e01:	e8 3a f6 ff ff       	callq  401440 <printf@plt>
  401e06:	48 8b 45 d8          	mov    -0x28(%rbp),%rax
  401e0a:	48 83 c0 18          	add    $0x18,%rax
  401e0e:	48 89 45 e8          	mov    %rax,-0x18(%rbp)
  401e12:	48 8b 45 d8          	mov    -0x28(%rbp),%rax
  401e16:	0f b6 40 17          	movzbl 0x17(%rax),%eax
  401e1a:	44 0f b6 d0          	movzbl %al,%r10d
  401e1e:	48 8b 45 d8          	mov    -0x28(%rbp),%rax
  401e22:	0f b6 40 16          	movzbl 0x16(%rax),%eax
  401e26:	44 0f b6 c8          	movzbl %al,%r9d
  401e2a:	48 8b 45 d8          	mov    -0x28(%rbp),%rax
  401e2e:	0f b6 40 15          	movzbl 0x15(%rax),%eax
  401e32:	44 0f b6 c0          	movzbl %al,%r8d
  401e36:	48 8b 45 d8          	mov    -0x28(%rbp),%rax
  401e3a:	0f b6 40 14          	movzbl 0x14(%rax),%eax
  401e3e:	0f b6 f8             	movzbl %al,%edi
  401e41:	48 8b 45 d8          	mov    -0x28(%rbp),%rax
  401e45:	0f b6 40 13          	movzbl 0x13(%rax),%eax
  401e49:	0f b6 f0             	movzbl %al,%esi
  401e4c:	48 8b 45 d8          	mov    -0x28(%rbp),%rax
  401e50:	0f b6 40 12          	movzbl 0x12(%rax),%eax
  401e54:	0f b6 d8             	movzbl %al,%ebx
  401e57:	48 8b 45 e8          	mov    -0x18(%rbp),%rax
  401e5b:	48 83 c0 03          	add    $0x3,%rax
  401e5f:	0f b6 00             	movzbl (%rax),%eax
  401e62:	44 0f b6 d8          	movzbl %al,%r11d
  401e66:	48 8b 45 e8          	mov    -0x18(%rbp),%rax
  401e6a:	48 83 c0 02          	add    $0x2,%rax
  401e6e:	0f b6 00             	movzbl (%rax),%eax
  401e71:	0f b6 c8             	movzbl %al,%ecx
  401e74:	48 8b 45 e8          	mov    -0x18(%rbp),%rax
  401e78:	48 83 c0 01          	add    $0x1,%rax
  401e7c:	0f b6 00             	movzbl (%rax),%eax
  401e7f:	0f b6 d0             	movzbl %al,%edx
  401e82:	48 8b 45 e8          	mov    -0x18(%rbp),%rax
  401e86:	0f b6 00             	movzbl (%rax),%eax
  401e89:	0f b6 c0             	movzbl %al,%eax
  401e8c:	44 89 54 24 20       	mov    %r10d,0x20(%rsp)
  401e91:	44 89 4c 24 18       	mov    %r9d,0x18(%rsp)
  401e96:	44 89 44 24 10       	mov    %r8d,0x10(%rsp)
  401e9b:	89 7c 24 08          	mov    %edi,0x8(%rsp)
  401e9f:	89 34 24             	mov    %esi,(%rsp)
  401ea2:	41 89 d9             	mov    %ebx,%r9d
  401ea5:	45 89 d8             	mov    %r11d,%r8d
  401ea8:	89 c6                	mov    %eax,%esi
  401eaa:	bf 10 3e 40 00       	mov    $0x403e10,%edi
  401eaf:	b8 00 00 00 00       	mov    $0x0,%eax
  401eb4:	e8 87 f5 ff ff       	callq  401440 <printf@plt>
  401eb9:	48 83 c4 48          	add    $0x48,%rsp
  401ebd:	5b                   	pop    %rbx
  401ebe:	5d                   	pop    %rbp
  401ebf:	c3                   	retq   

0000000000401ec0 <_Z13DumpARPPacketP6arphdr>:
  401ec0:	55                   	push   %rbp
  401ec1:	48 89 e5             	mov    %rsp,%rbp
  401ec4:	48 83 ec 20          	sub    $0x20,%rsp
  401ec8:	48 89 7d e8          	mov    %rdi,-0x18(%rbp)
  401ecc:	c7 45 fc 01 00 00 00 	movl   $0x1,-0x4(%rbp)
  401ed3:	8b 45 fc             	mov    -0x4(%rbp),%eax
  401ed6:	89 c7                	mov    %eax,%edi
  401ed8:	e8 f3 f5 ff ff       	callq  4014d0 <exit@plt>

0000000000401edd <_Z12h_DumpPacketPhi>:
  401edd:	55                   	push   %rbp
  401ede:	48 89 e5             	mov    %rsp,%rbp
  401ee1:	41 55                	push   %r13
  401ee3:	41 54                	push   %r12
  401ee5:	53                   	push   %rbx
  401ee6:	48 83 ec 78          	sub    $0x78,%rsp
  401eea:	48 89 7d b8          	mov    %rdi,-0x48(%rbp)
  401eee:	89 75 b4             	mov    %esi,-0x4c(%rbp)
  401ef1:	bf 4e 3e 40 00       	mov    $0x403e4e,%edi
  401ef6:	e8 b5 f5 ff ff       	callq  4014b0 <puts@plt>
  401efb:	48 8b 45 b8          	mov    -0x48(%rbp),%rax
  401eff:	48 89 45 c0          	mov    %rax,-0x40(%rbp)
  401f03:	48 8b 45 c0          	mov    -0x40(%rbp),%rax
  401f07:	0f b7 40 0c          	movzwl 0xc(%rax),%eax
  401f0b:	0f b7 c0             	movzwl %ax,%eax
  401f0e:	c1 e0 08             	shl    $0x8,%eax
  401f11:	0f b7 d0             	movzwl %ax,%edx
  401f14:	48 8b 45 c0          	mov    -0x40(%rbp),%rax
  401f18:	0f b7 40 0c          	movzwl 0xc(%rax),%eax
  401f1c:	66 c1 e8 08          	shr    $0x8,%ax
  401f20:	0f b7 c0             	movzwl %ax,%eax
  401f23:	09 d0                	or     %edx,%eax
  401f25:	3d 00 08 00 00       	cmp    $0x800,%eax
  401f2a:	0f 84 30 01 00 00    	je     402060 <_Z12h_DumpPacketPhi+0x183>
  401f30:	48 8b 45 c0          	mov    -0x40(%rbp),%rax
  401f34:	0f b6 40 05          	movzbl 0x5(%rax),%eax
  401f38:	0f b6 d8             	movzbl %al,%ebx
  401f3b:	48 8b 45 c0          	mov    -0x40(%rbp),%rax
  401f3f:	0f b6 40 04          	movzbl 0x4(%rax),%eax
  401f43:	44 0f b6 d8          	movzbl %al,%r11d
  401f47:	48 8b 45 c0          	mov    -0x40(%rbp),%rax
  401f4b:	0f b6 40 03          	movzbl 0x3(%rax),%eax
  401f4f:	44 0f b6 d0          	movzbl %al,%r10d
  401f53:	48 8b 45 c0          	mov    -0x40(%rbp),%rax
  401f57:	0f b6 40 02          	movzbl 0x2(%rax),%eax
  401f5b:	44 0f b6 c8          	movzbl %al,%r9d
  401f5f:	48 8b 45 c0          	mov    -0x40(%rbp),%rax
  401f63:	0f b6 40 01          	movzbl 0x1(%rax),%eax
  401f67:	44 0f b6 c0          	movzbl %al,%r8d
  401f6b:	48 8b 45 c0          	mov    -0x40(%rbp),%rax
  401f6f:	0f b6 00             	movzbl (%rax),%eax
  401f72:	0f b6 f8             	movzbl %al,%edi
  401f75:	48 8b 45 c0          	mov    -0x40(%rbp),%rax
  401f79:	0f b6 40 0b          	movzbl 0xb(%rax),%eax
  401f7d:	0f b6 f0             	movzbl %al,%esi
  401f80:	48 8b 45 c0          	mov    -0x40(%rbp),%rax
  401f84:	0f b6 40 0a          	movzbl 0xa(%rax),%eax
  401f88:	44 0f b6 e8          	movzbl %al,%r13d
  401f8c:	48 8b 45 c0          	mov    -0x40(%rbp),%rax
  401f90:	0f b6 40 09          	movzbl 0x9(%rax),%eax
  401f94:	44 0f b6 e0          	movzbl %al,%r12d
  401f98:	48 8b 45 c0          	mov    -0x40(%rbp),%rax
  401f9c:	0f b6 40 08          	movzbl 0x8(%rax),%eax
  401fa0:	0f b6 c8             	movzbl %al,%ecx
  401fa3:	48 8b 45 c0          	mov    -0x40(%rbp),%rax
  401fa7:	0f b6 40 07          	movzbl 0x7(%rax),%eax
  401fab:	0f b6 d0             	movzbl %al,%edx
  401fae:	48 8b 45 c0          	mov    -0x40(%rbp),%rax
  401fb2:	0f b6 40 06          	movzbl 0x6(%rax),%eax
  401fb6:	0f b6 c0             	movzbl %al,%eax
  401fb9:	89 5c 24 30          	mov    %ebx,0x30(%rsp)
  401fbd:	44 89 5c 24 28       	mov    %r11d,0x28(%rsp)
  401fc2:	44 89 54 24 20       	mov    %r10d,0x20(%rsp)
  401fc7:	44 89 4c 24 18       	mov    %r9d,0x18(%rsp)
  401fcc:	44 89 44 24 10       	mov    %r8d,0x10(%rsp)
  401fd1:	89 7c 24 08          	mov    %edi,0x8(%rsp)
  401fd5:	89 34 24             	mov    %esi,(%rsp)
  401fd8:	45 89 e9             	mov    %r13d,%r9d
  401fdb:	45 89 e0             	mov    %r12d,%r8d
  401fde:	89 c6                	mov    %eax,%esi
  401fe0:	bf 68 3e 40 00       	mov    $0x403e68,%edi
  401fe5:	b8 00 00 00 00       	mov    $0x0,%eax
  401fea:	e8 51 f4 ff ff       	callq  401440 <printf@plt>
  401fef:	48 8b 45 c0          	mov    -0x40(%rbp),%rax
  401ff3:	0f b7 40 0c          	movzwl 0xc(%rax),%eax
  401ff7:	0f b7 c0             	movzwl %ax,%eax
  401ffa:	c1 e0 08             	shl    $0x8,%eax
  401ffd:	0f b7 d0             	movzwl %ax,%edx
  402000:	48 8b 45 c0          	mov    -0x40(%rbp),%rax
  402004:	0f b7 40 0c          	movzwl 0xc(%rax),%eax
  402008:	66 c1 e8 08          	shr    $0x8,%ax
  40200c:	0f b7 c0             	movzwl %ax,%eax
  40200f:	09 d0                	or     %edx,%eax
  402011:	89 c6                	mov    %eax,%esi
  402013:	bf a8 3e 40 00       	mov    $0x403ea8,%edi
  402018:	b8 00 00 00 00       	mov    $0x0,%eax
  40201d:	e8 1e f4 ff ff       	callq  401440 <printf@plt>
  402022:	48 8b 45 c0          	mov    -0x40(%rbp),%rax
  402026:	0f b7 40 0c          	movzwl 0xc(%rax),%eax
  40202a:	0f b7 c0             	movzwl %ax,%eax
  40202d:	c1 e0 08             	shl    $0x8,%eax
  402030:	0f b7 d0             	movzwl %ax,%edx
  402033:	48 8b 45 c0          	mov    -0x40(%rbp),%rax
  402037:	0f b7 40 0c          	movzwl 0xc(%rax),%eax
  40203b:	66 c1 e8 08          	shr    $0x8,%ax
  40203f:	0f b7 c0             	movzwl %ax,%eax
  402042:	09 d0                	or     %edx,%eax
  402044:	3d 06 08 00 00       	cmp    $0x806,%eax
  402049:	75 10                	jne    40205b <_Z12h_DumpPacketPhi+0x17e>
  40204b:	48 8b 45 c0          	mov    -0x40(%rbp),%rax
  40204f:	48 83 c0 0e          	add    $0xe,%rax
  402053:	48 89 c7             	mov    %rax,%rdi
  402056:	e8 4b fc ff ff       	callq  401ca6 <_Z15h_DumpARPPacketP6arphdr>
  40205b:	e9 1c 02 00 00       	jmpq   40227c <_Z12h_DumpPacketPhi+0x39f>
  402060:	48 8b 45 c0          	mov    -0x40(%rbp),%rax
  402064:	48 83 c0 0e          	add    $0xe,%rax
  402068:	48 89 45 c8          	mov    %rax,-0x38(%rbp)
  40206c:	48 8b 45 c8          	mov    -0x38(%rbp),%rax
  402070:	0f b6 00             	movzbl (%rax),%eax
  402073:	83 e0 0f             	and    $0xf,%eax
  402076:	0f b6 c0             	movzbl %al,%eax
  402079:	48 8d 14 85 00 00 00 	lea    0x0(,%rax,4),%rdx
  402080:	00 
  402081:	48 8b 45 c8          	mov    -0x38(%rbp),%rax
  402085:	48 01 d0             	add    %rdx,%rax
  402088:	48 89 45 d0          	mov    %rax,-0x30(%rbp)
  40208c:	48 8b 45 c8          	mov    -0x38(%rbp),%rax
  402090:	48 83 c0 0c          	add    $0xc,%rax
  402094:	48 89 45 d8          	mov    %rax,-0x28(%rbp)
  402098:	48 8b 45 d8          	mov    -0x28(%rbp),%rax
  40209c:	48 83 c0 03          	add    $0x3,%rax
  4020a0:	0f b6 00             	movzbl (%rax),%eax
  4020a3:	0f b6 f0             	movzbl %al,%esi
  4020a6:	48 8b 45 d8          	mov    -0x28(%rbp),%rax
  4020aa:	48 83 c0 02          	add    $0x2,%rax
  4020ae:	0f b6 00             	movzbl (%rax),%eax
  4020b1:	0f b6 c8             	movzbl %al,%ecx
  4020b4:	48 8b 45 d8          	mov    -0x28(%rbp),%rax
  4020b8:	48 83 c0 01          	add    $0x1,%rax
  4020bc:	0f b6 00             	movzbl (%rax),%eax
  4020bf:	0f b6 d0             	movzbl %al,%edx
  4020c2:	48 8b 45 d8          	mov    -0x28(%rbp),%rax
  4020c6:	0f b6 00             	movzbl (%rax),%eax
  4020c9:	0f b6 c0             	movzbl %al,%eax
  4020cc:	41 89 f0             	mov    %esi,%r8d
  4020cf:	89 c6                	mov    %eax,%esi
  4020d1:	bf ba 3e 40 00       	mov    $0x403eba,%edi
  4020d6:	b8 00 00 00 00       	mov    $0x0,%eax
  4020db:	e8 60 f3 ff ff       	callq  401440 <printf@plt>
  4020e0:	48 8b 45 c8          	mov    -0x38(%rbp),%rax
  4020e4:	0f b6 40 09          	movzbl 0x9(%rax),%eax
  4020e8:	3c 06                	cmp    $0x6,%al
  4020ea:	74 0c                	je     4020f8 <_Z12h_DumpPacketPhi+0x21b>
  4020ec:	48 8b 45 c8          	mov    -0x38(%rbp),%rax
  4020f0:	0f b6 40 09          	movzbl 0x9(%rax),%eax
  4020f4:	3c 11                	cmp    $0x11,%al
  4020f6:	75 31                	jne    402129 <_Z12h_DumpPacketPhi+0x24c>
  4020f8:	48 8b 45 d0          	mov    -0x30(%rbp),%rax
  4020fc:	0f b7 00             	movzwl (%rax),%eax
  4020ff:	0f b7 c0             	movzwl %ax,%eax
  402102:	c1 e0 08             	shl    $0x8,%eax
  402105:	0f b7 d0             	movzwl %ax,%edx
  402108:	48 8b 45 d0          	mov    -0x30(%rbp),%rax
  40210c:	0f b7 00             	movzwl (%rax),%eax
  40210f:	66 c1 e8 08          	shr    $0x8,%ax
  402113:	0f b7 c0             	movzwl %ax,%eax
  402116:	09 d0                	or     %edx,%eax
  402118:	89 c6                	mov    %eax,%esi
  40211a:	bf c6 3e 40 00       	mov    $0x403ec6,%edi
  40211f:	b8 00 00 00 00       	mov    $0x0,%eax
  402124:	e8 17 f3 ff ff       	callq  401440 <printf@plt>
  402129:	bf cb 3e 40 00       	mov    $0x403ecb,%edi
  40212e:	b8 00 00 00 00       	mov    $0x0,%eax
  402133:	e8 08 f3 ff ff       	callq  401440 <printf@plt>
  402138:	48 8b 45 c8          	mov    -0x38(%rbp),%rax
  40213c:	48 83 c0 10          	add    $0x10,%rax
  402140:	48 89 45 d8          	mov    %rax,-0x28(%rbp)
  402144:	48 8b 45 d8          	mov    -0x28(%rbp),%rax
  402148:	48 83 c0 03          	add    $0x3,%rax
  40214c:	0f b6 00             	movzbl (%rax),%eax
  40214f:	0f b6 f0             	movzbl %al,%esi
  402152:	48 8b 45 d8          	mov    -0x28(%rbp),%rax
  402156:	48 83 c0 02          	add    $0x2,%rax
  40215a:	0f b6 00             	movzbl (%rax),%eax
  40215d:	0f b6 c8             	movzbl %al,%ecx
  402160:	48 8b 45 d8          	mov    -0x28(%rbp),%rax
  402164:	48 83 c0 01          	add    $0x1,%rax
  402168:	0f b6 00             	movzbl (%rax),%eax
  40216b:	0f b6 d0             	movzbl %al,%edx
  40216e:	48 8b 45 d8          	mov    -0x28(%rbp),%rax
  402172:	0f b6 00             	movzbl (%rax),%eax
  402175:	0f b6 c0             	movzbl %al,%eax
  402178:	41 89 f0             	mov    %esi,%r8d
  40217b:	89 c6                	mov    %eax,%esi
  40217d:	bf ba 3e 40 00       	mov    $0x403eba,%edi
  402182:	b8 00 00 00 00       	mov    $0x0,%eax
  402187:	e8 b4 f2 ff ff       	callq  401440 <printf@plt>
  40218c:	48 8b 45 c8          	mov    -0x38(%rbp),%rax
  402190:	0f b6 40 09          	movzbl 0x9(%rax),%eax
  402194:	3c 06                	cmp    $0x6,%al
  402196:	74 0c                	je     4021a4 <_Z12h_DumpPacketPhi+0x2c7>
  402198:	48 8b 45 c8          	mov    -0x38(%rbp),%rax
  40219c:	0f b6 40 09          	movzbl 0x9(%rax),%eax
  4021a0:	3c 11                	cmp    $0x11,%al
  4021a2:	75 33                	jne    4021d7 <_Z12h_DumpPacketPhi+0x2fa>
  4021a4:	48 8b 45 d0          	mov    -0x30(%rbp),%rax
  4021a8:	0f b7 40 02          	movzwl 0x2(%rax),%eax
  4021ac:	0f b7 c0             	movzwl %ax,%eax
  4021af:	c1 e0 08             	shl    $0x8,%eax
  4021b2:	0f b7 d0             	movzwl %ax,%edx
  4021b5:	48 8b 45 d0          	mov    -0x30(%rbp),%rax
  4021b9:	0f b7 40 02          	movzwl 0x2(%rax),%eax
  4021bd:	66 c1 e8 08          	shr    $0x8,%ax
  4021c1:	0f b7 c0             	movzwl %ax,%eax
  4021c4:	09 d0                	or     %edx,%eax
  4021c6:	89 c6                	mov    %eax,%esi
  4021c8:	bf c6 3e 40 00       	mov    $0x403ec6,%edi
  4021cd:	b8 00 00 00 00       	mov    $0x0,%eax
  4021d2:	e8 69 f2 ff ff       	callq  401440 <printf@plt>
  4021d7:	48 8b 45 c8          	mov    -0x38(%rbp),%rax
  4021db:	0f b7 40 04          	movzwl 0x4(%rax),%eax
  4021df:	0f b7 c0             	movzwl %ax,%eax
  4021e2:	c1 e0 08             	shl    $0x8,%eax
  4021e5:	0f b7 d0             	movzwl %ax,%edx
  4021e8:	48 8b 45 c8          	mov    -0x38(%rbp),%rax
  4021ec:	0f b7 40 04          	movzwl 0x4(%rax),%eax
  4021f0:	66 c1 e8 08          	shr    $0x8,%ax
  4021f4:	0f b7 c0             	movzwl %ax,%eax
  4021f7:	09 d0                	or     %edx,%eax
  4021f9:	89 c6                	mov    %eax,%esi
  4021fb:	bf d0 3e 40 00       	mov    $0x403ed0,%edi
  402200:	b8 00 00 00 00       	mov    $0x0,%eax
  402205:	e8 36 f2 ff ff       	callq  401440 <printf@plt>
  40220a:	48 8b 45 c8          	mov    -0x38(%rbp),%rax
  40220e:	0f b6 40 08          	movzbl 0x8(%rax),%eax
  402212:	0f b6 c0             	movzbl %al,%eax
  402215:	89 c6                	mov    %eax,%esi
  402217:	bf da 3e 40 00       	mov    $0x403eda,%edi
  40221c:	b8 00 00 00 00       	mov    $0x0,%eax
  402221:	e8 1a f2 ff ff       	callq  401440 <printf@plt>
  402226:	48 8b 45 c8          	mov    -0x38(%rbp),%rax
  40222a:	0f b6 40 09          	movzbl 0x9(%rax),%eax
  40222e:	0f b6 c0             	movzbl %al,%eax
  402231:	83 f8 06             	cmp    $0x6,%eax
  402234:	74 07                	je     40223d <_Z12h_DumpPacketPhi+0x360>
  402236:	83 f8 11             	cmp    $0x11,%eax
  402239:	74 13                	je     40224e <_Z12h_DumpPacketPhi+0x371>
  40223b:	eb 22                	jmp    40225f <_Z12h_DumpPacketPhi+0x382>
  40223d:	bf e3 3e 40 00       	mov    $0x403ee3,%edi
  402242:	b8 00 00 00 00       	mov    $0x0,%eax
  402247:	e8 f4 f1 ff ff       	callq  401440 <printf@plt>
  40224c:	eb 2e                	jmp    40227c <_Z12h_DumpPacketPhi+0x39f>
  40224e:	bf e8 3e 40 00       	mov    $0x403ee8,%edi
  402253:	b8 00 00 00 00       	mov    $0x0,%eax
  402258:	e8 e3 f1 ff ff       	callq  401440 <printf@plt>
  40225d:	eb 1d                	jmp    40227c <_Z12h_DumpPacketPhi+0x39f>
  40225f:	48 8b 45 c8          	mov    -0x38(%rbp),%rax
  402263:	0f b6 40 09          	movzbl 0x9(%rax),%eax
  402267:	0f b6 c0             	movzbl %al,%eax
  40226a:	89 c6                	mov    %eax,%esi
  40226c:	bf ed 3e 40 00       	mov    $0x403eed,%edi
  402271:	b8 00 00 00 00       	mov    $0x0,%eax
  402276:	e8 c5 f1 ff ff       	callq  401440 <printf@plt>
  40227b:	90                   	nop
  40227c:	8b 45 b4             	mov    -0x4c(%rbp),%eax
  40227f:	89 c6                	mov    %eax,%esi
  402281:	bf fa 3e 40 00       	mov    $0x403efa,%edi
  402286:	b8 00 00 00 00       	mov    $0x0,%eax
  40228b:	e8 b0 f1 ff ff       	callq  401440 <printf@plt>
  402290:	48 83 c4 78          	add    $0x78,%rsp
  402294:	5b                   	pop    %rbx
  402295:	41 5c                	pop    %r12
  402297:	41 5d                	pop    %r13
  402299:	5d                   	pop    %rbp
  40229a:	c3                   	retq   

000000000040229b <_Z10DumpPacketPhi>:
  40229b:	55                   	push   %rbp
  40229c:	48 89 e5             	mov    %rsp,%rbp
  40229f:	48 83 ec 20          	sub    $0x20,%rsp
  4022a3:	48 89 7d e8          	mov    %rdi,-0x18(%rbp)
  4022a7:	89 75 e4             	mov    %esi,-0x1c(%rbp)
  4022aa:	c7 45 fc 01 00 00 00 	movl   $0x1,-0x4(%rbp)
  4022b1:	8b 45 fc             	mov    -0x4(%rbp),%eax
  4022b4:	89 c7                	mov    %eax,%edi
  4022b6:	e8 15 f2 ff ff       	callq  4014d0 <exit@plt>

00000000004022bb <_Z16h_EthernetOutputPhtS_S_t>:
  4022bb:	55                   	push   %rbp
  4022bc:	48 89 e5             	mov    %rsp,%rbp
  4022bf:	48 83 ec 40          	sub    $0x40,%rsp
  4022c3:	48 89 7d e8          	mov    %rdi,-0x18(%rbp)
  4022c7:	89 f0                	mov    %esi,%eax
  4022c9:	48 89 55 d8          	mov    %rdx,-0x28(%rbp)
  4022cd:	48 89 4d d0          	mov    %rcx,-0x30(%rbp)
  4022d1:	44 89 c2             	mov    %r8d,%edx
  4022d4:	66 89 45 e4          	mov    %ax,-0x1c(%rbp)
  4022d8:	66 89 55 e0          	mov    %dx,-0x20(%rbp)
  4022dc:	48 8b 45 e8          	mov    -0x18(%rbp),%rax
  4022e0:	48 89 45 f8          	mov    %rax,-0x8(%rbp)
  4022e4:	48 8b 45 d0          	mov    -0x30(%rbp),%rax
  4022e8:	48 83 c0 05          	add    $0x5,%rax
  4022ec:	0f b6 00             	movzbl (%rax),%eax
  4022ef:	0f b6 f0             	movzbl %al,%esi
  4022f2:	48 8b 45 d0          	mov    -0x30(%rbp),%rax
  4022f6:	48 83 c0 04          	add    $0x4,%rax
  4022fa:	0f b6 00             	movzbl (%rax),%eax
  4022fd:	44 0f b6 c0          	movzbl %al,%r8d
  402301:	48 8b 45 d0          	mov    -0x30(%rbp),%rax
  402305:	48 83 c0 03          	add    $0x3,%rax
  402309:	0f b6 00             	movzbl (%rax),%eax
  40230c:	0f b6 f8             	movzbl %al,%edi
  40230f:	48 8b 45 d0          	mov    -0x30(%rbp),%rax
  402313:	48 83 c0 02          	add    $0x2,%rax
  402317:	0f b6 00             	movzbl (%rax),%eax
  40231a:	0f b6 c8             	movzbl %al,%ecx
  40231d:	48 8b 45 d0          	mov    -0x30(%rbp),%rax
  402321:	48 83 c0 01          	add    $0x1,%rax
  402325:	0f b6 00             	movzbl (%rax),%eax
  402328:	0f b6 d0             	movzbl %al,%edx
  40232b:	48 8b 45 d0          	mov    -0x30(%rbp),%rax
  40232f:	0f b6 00             	movzbl (%rax),%eax
  402332:	0f b6 c0             	movzbl %al,%eax
  402335:	89 34 24             	mov    %esi,(%rsp)
  402338:	45 89 c1             	mov    %r8d,%r9d
  40233b:	41 89 f8             	mov    %edi,%r8d
  40233e:	89 c6                	mov    %eax,%esi
  402340:	bf 08 3f 40 00       	mov    $0x403f08,%edi
  402345:	b8 00 00 00 00       	mov    $0x0,%eax
  40234a:	e8 f1 f0 ff ff       	callq  401440 <printf@plt>
  40234f:	48 8b 45 d8          	mov    -0x28(%rbp),%rax
  402353:	48 83 c0 05          	add    $0x5,%rax
  402357:	0f b6 00             	movzbl (%rax),%eax
  40235a:	0f b6 f0             	movzbl %al,%esi
  40235d:	48 8b 45 d8          	mov    -0x28(%rbp),%rax
  402361:	48 83 c0 04          	add    $0x4,%rax
  402365:	0f b6 00             	movzbl (%rax),%eax
  402368:	44 0f b6 c0          	movzbl %al,%r8d
  40236c:	48 8b 45 d8          	mov    -0x28(%rbp),%rax
  402370:	48 83 c0 03          	add    $0x3,%rax
  402374:	0f b6 00             	movzbl (%rax),%eax
  402377:	0f b6 f8             	movzbl %al,%edi
  40237a:	48 8b 45 d8          	mov    -0x28(%rbp),%rax
  40237e:	48 83 c0 02          	add    $0x2,%rax
  402382:	0f b6 00             	movzbl (%rax),%eax
  402385:	0f b6 c8             	movzbl %al,%ecx
  402388:	48 8b 45 d8          	mov    -0x28(%rbp),%rax
  40238c:	48 83 c0 01          	add    $0x1,%rax
  402390:	0f b6 00             	movzbl (%rax),%eax
  402393:	0f b6 d0             	movzbl %al,%edx
  402396:	48 8b 45 d8          	mov    -0x28(%rbp),%rax
  40239a:	0f b6 00             	movzbl (%rax),%eax
  40239d:	0f b6 c0             	movzbl %al,%eax
  4023a0:	89 34 24             	mov    %esi,(%rsp)
  4023a3:	45 89 c1             	mov    %r8d,%r9d
  4023a6:	41 89 f8             	mov    %edi,%r8d
  4023a9:	89 c6                	mov    %eax,%esi
  4023ab:	bf 38 3f 40 00       	mov    $0x403f38,%edi
  4023b0:	b8 00 00 00 00       	mov    $0x0,%eax
  4023b5:	e8 86 f0 ff ff       	callq  401440 <printf@plt>
  4023ba:	c7 45 f4 00 00 00 00 	movl   $0x0,-0xc(%rbp)
  4023c1:	eb 3d                	jmp    402400 <_Z16h_EthernetOutputPhtS_S_t+0x145>
  4023c3:	8b 45 f4             	mov    -0xc(%rbp),%eax
  4023c6:	48 63 d0             	movslq %eax,%rdx
  4023c9:	48 8b 45 d8          	mov    -0x28(%rbp),%rax
  4023cd:	48 01 d0             	add    %rdx,%rax
  4023d0:	0f b6 08             	movzbl (%rax),%ecx
  4023d3:	48 8b 55 f8          	mov    -0x8(%rbp),%rdx
  4023d7:	8b 45 f4             	mov    -0xc(%rbp),%eax
  4023da:	48 98                	cltq   
  4023dc:	88 4c 02 06          	mov    %cl,0x6(%rdx,%rax,1)
  4023e0:	8b 45 f4             	mov    -0xc(%rbp),%eax
  4023e3:	48 63 d0             	movslq %eax,%rdx
  4023e6:	48 8b 45 d0          	mov    -0x30(%rbp),%rax
  4023ea:	48 01 d0             	add    %rdx,%rax
  4023ed:	0f b6 08             	movzbl (%rax),%ecx
  4023f0:	48 8b 55 f8          	mov    -0x8(%rbp),%rdx
  4023f4:	8b 45 f4             	mov    -0xc(%rbp),%eax
  4023f7:	48 98                	cltq   
  4023f9:	88 0c 02             	mov    %cl,(%rdx,%rax,1)
  4023fc:	83 45 f4 01          	addl   $0x1,-0xc(%rbp)
  402400:	83 7d f4 05          	cmpl   $0x5,-0xc(%rbp)
  402404:	7e bd                	jle    4023c3 <_Z16h_EthernetOutputPhtS_S_t+0x108>
  402406:	0f b7 45 e4          	movzwl -0x1c(%rbp),%eax
  40240a:	c1 e0 08             	shl    $0x8,%eax
  40240d:	89 c2                	mov    %eax,%edx
  40240f:	0f b7 45 e4          	movzwl -0x1c(%rbp),%eax
  402413:	66 c1 e8 08          	shr    $0x8,%ax
  402417:	09 d0                	or     %edx,%eax
  402419:	89 c2                	mov    %eax,%edx
  40241b:	48 8b 45 f8          	mov    -0x8(%rbp),%rax
  40241f:	66 89 50 0c          	mov    %dx,0xc(%rax)
  402423:	48 8b 45 f8          	mov    -0x8(%rbp),%rax
  402427:	48 83 c0 0e          	add    $0xe,%rax
  40242b:	c9                   	leaveq 
  40242c:	c3                   	retq   

000000000040242d <_Z14EthernetOutputPhtS_S_t>:
  40242d:	55                   	push   %rbp
  40242e:	48 89 e5             	mov    %rsp,%rbp
  402431:	48 83 ec 30          	sub    $0x30,%rsp
  402435:	48 89 7d e8          	mov    %rdi,-0x18(%rbp)
  402439:	89 f0                	mov    %esi,%eax
  40243b:	48 89 55 d8          	mov    %rdx,-0x28(%rbp)
  40243f:	48 89 4d d0          	mov    %rcx,-0x30(%rbp)
  402443:	44 89 c2             	mov    %r8d,%edx
  402446:	66 89 45 e4          	mov    %ax,-0x1c(%rbp)
  40244a:	66 89 55 e0          	mov    %dx,-0x20(%rbp)
  40244e:	c7 45 fc 01 00 00 00 	movl   $0x1,-0x4(%rbp)
  402455:	8b 45 fc             	mov    -0x4(%rbp),%eax
  402458:	89 c7                	mov    %eax,%edi
  40245a:	e8 71 f0 ff ff       	callq  4014d0 <exit@plt>

000000000040245f <_ZL11h_ARPOutputPhijjS_>:
  40245f:	55                   	push   %rbp
  402460:	48 89 e5             	mov    %rsp,%rbp
  402463:	53                   	push   %rbx
  402464:	48 83 ec 48          	sub    $0x48,%rsp
  402468:	48 89 7d c8          	mov    %rdi,-0x38(%rbp)
  40246c:	89 75 c4             	mov    %esi,-0x3c(%rbp)
  40246f:	89 55 c0             	mov    %edx,-0x40(%rbp)
  402472:	89 4d bc             	mov    %ecx,-0x44(%rbp)
  402475:	4c 89 45 b0          	mov    %r8,-0x50(%rbp)
  402479:	64 48 8b 04 25 28 00 	mov    %fs:0x28,%rax
  402480:	00 00 
  402482:	48 89 45 e8          	mov    %rax,-0x18(%rbp)
  402486:	31 c0                	xor    %eax,%eax
  402488:	48 83 7d b0 00       	cmpq   $0x0,-0x50(%rbp)
  40248d:	75 0a                	jne    402499 <_ZL11h_ARPOutputPhijjS_+0x3a>
  40248f:	b8 ff ff ff ff       	mov    $0xffffffff,%eax
  402494:	e9 18 01 00 00       	jmpq   4025b1 <_ZL11h_ARPOutputPhijjS_+0x152>
  402499:	bf 63 3f 40 00       	mov    $0x403f63,%edi
  40249e:	e8 0d f0 ff ff       	callq  4014b0 <puts@plt>
  4024a3:	c6 45 e0 00          	movb   $0x0,-0x20(%rbp)
  4024a7:	c6 45 e1 1b          	movb   $0x1b,-0x1f(%rbp)
  4024ab:	c6 45 e2 21          	movb   $0x21,-0x1e(%rbp)
  4024af:	c6 45 e3 bc          	movb   $0xbc,-0x1d(%rbp)
  4024b3:	c6 45 e4 11          	movb   $0x11,-0x1c(%rbp)
  4024b7:	c6 45 e5 52          	movb   $0x52,-0x1b(%rbp)
  4024bb:	48 8b 4d b0          	mov    -0x50(%rbp),%rcx
  4024bf:	48 8d 55 e0          	lea    -0x20(%rbp),%rdx
  4024c3:	48 8b 45 c8          	mov    -0x38(%rbp),%rax
  4024c7:	41 b8 2e 00 00 00    	mov    $0x2e,%r8d
  4024cd:	be 06 08 00 00       	mov    $0x806,%esi
  4024d2:	48 89 c7             	mov    %rax,%rdi
  4024d5:	e8 e1 fd ff ff       	callq  4022bb <_Z16h_EthernetOutputPhtS_S_t>
  4024da:	48 89 45 d8          	mov    %rax,-0x28(%rbp)
  4024de:	48 83 7d d8 00       	cmpq   $0x0,-0x28(%rbp)
  4024e3:	75 14                	jne    4024f9 <_ZL11h_ARPOutputPhijjS_+0x9a>
  4024e5:	bf 6d 3f 40 00       	mov    $0x403f6d,%edi
  4024ea:	e8 c1 ef ff ff       	callq  4014b0 <puts@plt>
  4024ef:	b8 ff ff ff ff       	mov    $0xffffffff,%eax
  4024f4:	e9 b8 00 00 00       	jmpq   4025b1 <_ZL11h_ARPOutputPhijjS_+0x152>
  4024f9:	48 8b 45 d8          	mov    -0x28(%rbp),%rax
  4024fd:	66 c7 00 00 01       	movw   $0x100,(%rax)
  402502:	48 8b 45 d8          	mov    -0x28(%rbp),%rax
  402506:	66 c7 40 02 08 00    	movw   $0x8,0x2(%rax)
  40250c:	48 8b 45 d8          	mov    -0x28(%rbp),%rax
  402510:	c6 40 04 06          	movb   $0x6,0x4(%rax)
  402514:	48 8b 45 d8          	mov    -0x28(%rbp),%rax
  402518:	c6 40 05 04          	movb   $0x4,0x5(%rax)
  40251c:	8b 45 c4             	mov    -0x3c(%rbp),%eax
  40251f:	0f b7 c0             	movzwl %ax,%eax
  402522:	c1 e0 08             	shl    $0x8,%eax
  402525:	89 c2                	mov    %eax,%edx
  402527:	8b 45 c4             	mov    -0x3c(%rbp),%eax
  40252a:	66 c1 e8 08          	shr    $0x8,%ax
  40252e:	09 d0                	or     %edx,%eax
  402530:	89 c2                	mov    %eax,%edx
  402532:	48 8b 45 d8          	mov    -0x28(%rbp),%rax
  402536:	66 89 50 06          	mov    %dx,0x6(%rax)
  40253a:	48 8b 45 d8          	mov    -0x28(%rbp),%rax
  40253e:	8b 55 c0             	mov    -0x40(%rbp),%edx
  402541:	89 50 0e             	mov    %edx,0xe(%rax)
  402544:	48 8b 45 d8          	mov    -0x28(%rbp),%rax
  402548:	8b 55 bc             	mov    -0x44(%rbp),%edx
  40254b:	89 50 18             	mov    %edx,0x18(%rax)
  40254e:	48 8b 45 d8          	mov    -0x28(%rbp),%rax
  402552:	0f b6 40 04          	movzbl 0x4(%rax),%eax
  402556:	0f b6 d0             	movzbl %al,%edx
  402559:	48 8b 45 d8          	mov    -0x28(%rbp),%rax
  40255d:	48 8d 48 08          	lea    0x8(%rax),%rcx
  402561:	48 8d 45 e0          	lea    -0x20(%rbp),%rax
  402565:	48 89 c6             	mov    %rax,%rsi
  402568:	48 89 cf             	mov    %rcx,%rdi
  40256b:	e8 10 f2 ff ff       	callq  401780 <memcpy@plt>
  402570:	48 8b 45 d8          	mov    -0x28(%rbp),%rax
  402574:	0f b6 40 04          	movzbl 0x4(%rax),%eax
  402578:	0f b6 d0             	movzbl %al,%edx
  40257b:	48 8b 45 d8          	mov    -0x28(%rbp),%rax
  40257f:	48 8d 48 12          	lea    0x12(%rax),%rcx
  402583:	48 8b 45 b0          	mov    -0x50(%rbp),%rax
  402587:	48 89 c6             	mov    %rax,%rsi
  40258a:	48 89 cf             	mov    %rcx,%rdi
  40258d:	e8 ee f1 ff ff       	callq  401780 <memcpy@plt>
  402592:	48 8b 45 d8          	mov    -0x28(%rbp),%rax
  402596:	48 83 c0 1c          	add    $0x1c,%rax
  40259a:	ba 12 00 00 00       	mov    $0x12,%edx
  40259f:	be 00 00 00 00       	mov    $0x0,%esi
  4025a4:	48 89 c7             	mov    %rax,%rdi
  4025a7:	e8 b4 ee ff ff       	callq  401460 <memset@plt>
  4025ac:	b8 00 00 00 00       	mov    $0x0,%eax
  4025b1:	48 8b 5d e8          	mov    -0x18(%rbp),%rbx
  4025b5:	64 48 33 1c 25 28 00 	xor    %fs:0x28,%rbx
  4025bc:	00 00 
  4025be:	74 05                	je     4025c5 <_ZL11h_ARPOutputPhijjS_+0x166>
  4025c0:	e8 fb f0 ff ff       	callq  4016c0 <__stack_chk_fail@plt>
  4025c5:	48 83 c4 48          	add    $0x48,%rsp
  4025c9:	5b                   	pop    %rbx
  4025ca:	5d                   	pop    %rbp
  4025cb:	c3                   	retq   

00000000004025cc <_ZL9ARPOutputPhijjS_>:
  4025cc:	55                   	push   %rbp
  4025cd:	48 89 e5             	mov    %rsp,%rbp
  4025d0:	48 83 ec 30          	sub    $0x30,%rsp
  4025d4:	48 89 7d e8          	mov    %rdi,-0x18(%rbp)
  4025d8:	89 75 e4             	mov    %esi,-0x1c(%rbp)
  4025db:	89 55 e0             	mov    %edx,-0x20(%rbp)
  4025de:	89 4d dc             	mov    %ecx,-0x24(%rbp)
  4025e1:	4c 89 45 d0          	mov    %r8,-0x30(%rbp)
  4025e5:	c7 45 fc 01 00 00 00 	movl   $0x1,-0x4(%rbp)
  4025ec:	8b 45 fc             	mov    -0x4(%rbp),%eax
  4025ef:	89 c7                	mov    %eax,%edi
  4025f1:	e8 da ee ff ff       	callq  4014d0 <exit@plt>

00000000004025f6 <_Z13my_pin_bufferP2mymmmjPj>:
  4025f6:	55                   	push   %rbp
  4025f7:	48 89 e5             	mov    %rsp,%rbp
  4025fa:	48 83 ec 60          	sub    $0x60,%rsp
  4025fe:	48 89 7d c8          	mov    %rdi,-0x38(%rbp)
  402602:	48 89 75 c0          	mov    %rsi,-0x40(%rbp)
  402606:	48 89 55 b8          	mov    %rdx,-0x48(%rbp)
  40260a:	48 89 4d b0          	mov    %rcx,-0x50(%rbp)
  40260e:	44 89 45 ac          	mov    %r8d,-0x54(%rbp)
  402612:	4c 89 4d a0          	mov    %r9,-0x60(%rbp)
  402616:	c7 45 d8 00 00 00 00 	movl   $0x0,-0x28(%rbp)
  40261d:	48 8b 45 c0          	mov    -0x40(%rbp),%rax
  402621:	48 89 45 e0          	mov    %rax,-0x20(%rbp)
  402625:	48 8b 45 b8          	mov    -0x48(%rbp),%rax
  402629:	48 89 45 e8          	mov    %rax,-0x18(%rbp)
  40262d:	48 8b 45 b0          	mov    -0x50(%rbp),%rax
  402631:	48 89 45 f0          	mov    %rax,-0x10(%rbp)
  402635:	8b 45 ac             	mov    -0x54(%rbp),%eax
  402638:	89 45 f8             	mov    %eax,-0x8(%rbp)
  40263b:	c7 45 fc 00 00 00 00 	movl   $0x0,-0x4(%rbp)
  402642:	ba 00 00 20 00       	mov    $0x200000,%edx
  402647:	b8 01 da 00 c0       	mov    $0xc000da01,%eax
  40264c:	48 89 d1             	mov    %rdx,%rcx
  40264f:	48 09 c1             	or     %rax,%rcx
  402652:	48 8b 45 c8          	mov    -0x38(%rbp),%rax
  402656:	8b 00                	mov    (%rax),%eax
  402658:	48 8d 55 e0          	lea    -0x20(%rbp),%rdx
  40265c:	48 89 ce             	mov    %rcx,%rsi
  40265f:	89 c7                	mov    %eax,%edi
  402661:	b8 00 00 00 00       	mov    $0x0,%eax
  402666:	e8 15 ee ff ff       	callq  401480 <ioctl@plt>
  40266b:	89 45 dc             	mov    %eax,-0x24(%rbp)
  40266e:	83 7d dc 00          	cmpl   $0x0,-0x24(%rbp)
  402672:	74 23                	je     402697 <_Z13my_pin_bufferP2mymmmjPj+0xa1>
  402674:	e8 37 f0 ff ff       	callq  4016b0 <__errno_location@plt>
  402679:	8b 00                	mov    (%rax),%eax
  40267b:	89 45 d8             	mov    %eax,-0x28(%rbp)
  40267e:	8b 45 d8             	mov    -0x28(%rbp),%eax
  402681:	89 c2                	mov    %eax,%edx
  402683:	be 73 3f 40 00       	mov    $0x403f73,%esi
  402688:	bf 04 00 00 00       	mov    $0x4,%edi
  40268d:	b8 00 00 00 00       	mov    $0x0,%eax
  402692:	e8 e2 f4 ff ff       	callq  401b79 <_ZL6my_msg16mycopy_msg_levelPKcz>
  402697:	8b 55 fc             	mov    -0x4(%rbp),%edx
  40269a:	48 8b 45 a0          	mov    -0x60(%rbp),%rax
  40269e:	89 10                	mov    %edx,(%rax)
  4026a0:	8b 45 d8             	mov    -0x28(%rbp),%eax
  4026a3:	c9                   	leaveq 
  4026a4:	c3                   	retq   

00000000004026a5 <_Z7my_openv>:
  4026a5:	55                   	push   %rbp
  4026a6:	48 89 e5             	mov    %rsp,%rbp
  4026a9:	48 83 ec 20          	sub    $0x20,%rsp
  4026ad:	48 c7 45 f0 00 00 00 	movq   $0x0,-0x10(%rbp)
  4026b4:	00 
  4026b5:	48 c7 45 f8 91 3f 40 	movq   $0x403f91,-0x8(%rbp)
  4026bc:	00 
  4026bd:	be 04 00 00 00       	mov    $0x4,%esi
  4026c2:	bf 01 00 00 00       	mov    $0x1,%edi
  4026c7:	e8 04 f0 ff ff       	callq  4016d0 <calloc@plt>
  4026cc:	48 89 45 f0          	mov    %rax,-0x10(%rbp)
  4026d0:	48 83 7d f0 00       	cmpq   $0x0,-0x10(%rbp)
  4026d5:	75 07                	jne    4026de <_Z7my_openv+0x39>
  4026d7:	b8 00 00 00 00       	mov    $0x0,%eax
  4026dc:	eb 49                	jmp    402727 <_Z7my_openv+0x82>
  4026de:	48 8b 45 f8          	mov    -0x8(%rbp),%rax
  4026e2:	be 02 00 00 00       	mov    $0x2,%esi
  4026e7:	48 89 c7             	mov    %rax,%rdi
  4026ea:	b8 00 00 00 00       	mov    $0x0,%eax
  4026ef:	e8 bc f0 ff ff       	callq  4017b0 <open@plt>
  4026f4:	89 45 e8             	mov    %eax,-0x18(%rbp)
  4026f7:	83 7d e8 ff          	cmpl   $0xffffffff,-0x18(%rbp)
  4026fb:	75 1d                	jne    40271a <_Z7my_openv+0x75>
  4026fd:	e8 ae ef ff ff       	callq  4016b0 <__errno_location@plt>
  402702:	8b 00                	mov    (%rax),%eax
  402704:	89 45 ec             	mov    %eax,-0x14(%rbp)
  402707:	48 8b 45 f0          	mov    -0x10(%rbp),%rax
  40270b:	48 89 c7             	mov    %rax,%rdi
  40270e:	e8 9d ee ff ff       	callq  4015b0 <free@plt>
  402713:	b8 00 00 00 00       	mov    $0x0,%eax
  402718:	eb 0d                	jmp    402727 <_Z7my_openv+0x82>
  40271a:	48 8b 45 f0          	mov    -0x10(%rbp),%rax
  40271e:	8b 55 e8             	mov    -0x18(%rbp),%edx
  402721:	89 10                	mov    %edx,(%rax)
  402723:	48 8b 45 f0          	mov    -0x10(%rbp),%rax
  402727:	c9                   	leaveq 
  402728:	c3                   	retq   

0000000000402729 <_Z9init_dataiPhPi>:
  402729:	55                   	push   %rbp
  40272a:	48 89 e5             	mov    %rsp,%rbp
  40272d:	48 83 c4 80          	add    $0xffffffffffffff80,%rsp
  402731:	89 7d 9c             	mov    %edi,-0x64(%rbp)
  402734:	48 89 75 90          	mov    %rsi,-0x70(%rbp)
  402738:	48 89 55 88          	mov    %rdx,-0x78(%rbp)
  40273c:	64 48 8b 04 25 28 00 	mov    %fs:0x28,%rax
  402743:	00 00 
  402745:	48 89 45 f8          	mov    %rax,-0x8(%rbp)
  402749:	31 c0                	xor    %eax,%eax
  40274b:	c7 45 b0 00 00 00 00 	movl   $0x0,-0x50(%rbp)
  402752:	eb 14                	jmp    402768 <_Z9init_dataiPhPi+0x3f>
  402754:	8b 45 b0             	mov    -0x50(%rbp),%eax
  402757:	48 63 d0             	movslq %eax,%rdx
  40275a:	48 8b 45 90          	mov    -0x70(%rbp),%rax
  40275e:	48 01 d0             	add    %rdx,%rax
  402761:	c6 00 00             	movb   $0x0,(%rax)
  402764:	83 45 b0 01          	addl   $0x1,-0x50(%rbp)
  402768:	8b 45 9c             	mov    -0x64(%rbp),%eax
  40276b:	89 c2                	mov    %eax,%edx
  40276d:	c1 ea 1f             	shr    $0x1f,%edx
  402770:	01 d0                	add    %edx,%eax
  402772:	d1 f8                	sar    %eax
  402774:	3b 45 b0             	cmp    -0x50(%rbp),%eax
  402777:	7f db                	jg     402754 <_Z9init_dataiPhPi+0x2b>
  402779:	b8 64 00 00 00       	mov    $0x64,%eax
  40277e:	48 89 c7             	mov    %rax,%rdi
  402781:	e8 9a ed ff ff       	callq  401520 <malloc@plt>
  402786:	48 89 45 c0          	mov    %rax,-0x40(%rbp)
  40278a:	bf 3c 00 00 00       	mov    $0x3c,%edi
  40278f:	e8 8c ed ff ff       	callq  401520 <malloc@plt>
  402794:	48 89 45 c8          	mov    %rax,-0x38(%rbp)
  402798:	c6 45 d0 0a          	movb   $0xa,-0x30(%rbp)
  40279c:	c6 45 d1 00          	movb   $0x0,-0x2f(%rbp)
  4027a0:	c6 45 d2 00          	movb   $0x0,-0x2e(%rbp)
  4027a4:	c6 45 d3 02          	movb   $0x2,-0x2d(%rbp)
  4027a8:	c6 45 e0 0a          	movb   $0xa,-0x20(%rbp)
  4027ac:	c6 45 e1 00          	movb   $0x0,-0x1f(%rbp)
  4027b0:	c6 45 e2 00          	movb   $0x0,-0x1e(%rbp)
  4027b4:	c6 45 e3 01          	movb   $0x1,-0x1d(%rbp)
  4027b8:	8b 45 d0             	mov    -0x30(%rbp),%eax
  4027bb:	89 45 a8             	mov    %eax,-0x58(%rbp)
  4027be:	8b 45 e0             	mov    -0x20(%rbp),%eax
  4027c1:	89 45 ac             	mov    %eax,-0x54(%rbp)
  4027c4:	48 8d 45 f0          	lea    -0x10(%rbp),%rax
  4027c8:	ba 06 00 00 00       	mov    $0x6,%edx
  4027cd:	be ff 00 00 00       	mov    $0xff,%esi
  4027d2:	48 89 c7             	mov    %rax,%rdi
  4027d5:	e8 86 ec ff ff       	callq  401460 <memset@plt>
  4027da:	8b 4d ac             	mov    -0x54(%rbp),%ecx
  4027dd:	8b 55 a8             	mov    -0x58(%rbp),%edx
  4027e0:	48 8d 75 f0          	lea    -0x10(%rbp),%rsi
  4027e4:	48 8b 45 c8          	mov    -0x38(%rbp),%rax
  4027e8:	49 89 f0             	mov    %rsi,%r8
  4027eb:	be 01 00 00 00       	mov    $0x1,%esi
  4027f0:	48 89 c7             	mov    %rax,%rdi
  4027f3:	e8 67 fc ff ff       	callq  40245f <_ZL11h_ARPOutputPhijjS_>
  4027f8:	c7 45 b4 00 00 00 00 	movl   $0x0,-0x4c(%rbp)
  4027ff:	eb 40                	jmp    402841 <_Z9init_dataiPhPi+0x118>
  402801:	c7 45 b8 00 00 00 00 	movl   $0x0,-0x48(%rbp)
  402808:	eb 2d                	jmp    402837 <_Z9init_dataiPhPi+0x10e>
  40280a:	8b 45 b4             	mov    -0x4c(%rbp),%eax
  40280d:	c1 e0 0c             	shl    $0xc,%eax
  402810:	89 c2                	mov    %eax,%edx
  402812:	8b 45 b8             	mov    -0x48(%rbp),%eax
  402815:	01 d0                	add    %edx,%eax
  402817:	48 63 d0             	movslq %eax,%rdx
  40281a:	48 8b 45 90          	mov    -0x70(%rbp),%rax
  40281e:	48 01 c2             	add    %rax,%rdx
  402821:	8b 45 b8             	mov    -0x48(%rbp),%eax
  402824:	48 63 c8             	movslq %eax,%rcx
  402827:	48 8b 45 c8          	mov    -0x38(%rbp),%rax
  40282b:	48 01 c8             	add    %rcx,%rax
  40282e:	0f b6 00             	movzbl (%rax),%eax
  402831:	88 02                	mov    %al,(%rdx)
  402833:	83 45 b8 01          	addl   $0x1,-0x48(%rbp)
  402837:	83 7d b8 3b          	cmpl   $0x3b,-0x48(%rbp)
  40283b:	7e cd                	jle    40280a <_Z9init_dataiPhPi+0xe1>
  40283d:	83 45 b4 01          	addl   $0x1,-0x4c(%rbp)
  402841:	81 7d b4 ff 01 00 00 	cmpl   $0x1ff,-0x4c(%rbp)
  402848:	7e b7                	jle    402801 <_Z9init_dataiPhPi+0xd8>
  40284a:	c7 45 bc 00 00 00 00 	movl   $0x0,-0x44(%rbp)
  402851:	eb 7d                	jmp    4028d0 <_Z9init_dataiPhPi+0x1a7>
  402853:	8b 45 bc             	mov    -0x44(%rbp),%eax
  402856:	48 63 d0             	movslq %eax,%rdx
  402859:	48 8b 45 90          	mov    -0x70(%rbp),%rax
  40285d:	48 01 d0             	add    %rdx,%rax
  402860:	0f b7 00             	movzwl (%rax),%eax
  402863:	66 3d 08 06          	cmp    $0x608,%ax
  402867:	74 16                	je     40287f <_Z9init_dataiPhPi+0x156>
  402869:	8b 45 bc             	mov    -0x44(%rbp),%eax
  40286c:	48 63 d0             	movslq %eax,%rdx
  40286f:	48 8b 45 90          	mov    -0x70(%rbp),%rax
  402873:	48 01 d0             	add    %rdx,%rax
  402876:	0f b7 00             	movzwl (%rax),%eax
  402879:	66 3d 06 08          	cmp    $0x806,%ax
  40287d:	75 4d                	jne    4028cc <_Z9init_dataiPhPi+0x1a3>
  40287f:	8b 45 bc             	mov    -0x44(%rbp),%eax
  402882:	48 98                	cltq   
  402884:	48 8d 50 01          	lea    0x1(%rax),%rdx
  402888:	48 8b 45 90          	mov    -0x70(%rbp),%rax
  40288c:	48 01 d0             	add    %rdx,%rax
  40288f:	0f b6 00             	movzbl (%rax),%eax
  402892:	0f b6 d0             	movzbl %al,%edx
  402895:	8b 45 bc             	mov    -0x44(%rbp),%eax
  402898:	48 63 c8             	movslq %eax,%rcx
  40289b:	48 8b 45 90          	mov    -0x70(%rbp),%rax
  40289f:	48 01 c8             	add    %rcx,%rax
  4028a2:	0f b6 00             	movzbl (%rax),%eax
  4028a5:	0f b6 c0             	movzbl %al,%eax
  4028a8:	8b 4d bc             	mov    -0x44(%rbp),%ecx
  4028ab:	41 89 c9             	mov    %ecx,%r9d
  4028ae:	41 89 d0             	mov    %edx,%r8d
  4028b1:	89 c1                	mov    %eax,%ecx
  4028b3:	ba b9 02 00 00       	mov    $0x2b9,%edx
  4028b8:	be 21 43 40 00       	mov    $0x404321,%esi
  4028bd:	bf a0 3f 40 00       	mov    $0x403fa0,%edi
  4028c2:	b8 00 00 00 00       	mov    $0x0,%eax
  4028c7:	e8 74 eb ff ff       	callq  401440 <printf@plt>
  4028cc:	83 45 bc 01          	addl   $0x1,-0x44(%rbp)
  4028d0:	81 7d bc ff ff 1f 00 	cmpl   $0x1fffff,-0x44(%rbp)
  4028d7:	0f 8e 76 ff ff ff    	jle    402853 <_Z9init_dataiPhPi+0x12a>
  4028dd:	48 8b 45 f8          	mov    -0x8(%rbp),%rax
  4028e1:	64 48 33 04 25 28 00 	xor    %fs:0x28,%rax
  4028e8:	00 00 
  4028ea:	74 05                	je     4028f1 <_Z9init_dataiPhPi+0x1c8>
  4028ec:	e8 cf ed ff ff       	callq  4016c0 <__stack_chk_fail@plt>
  4028f1:	c9                   	leaveq 
  4028f2:	c3                   	retq   

00000000004028f3 <_Z10check_dataiPhPi>:
  4028f3:	55                   	push   %rbp
  4028f4:	48 89 e5             	mov    %rsp,%rbp
  4028f7:	48 83 ec 50          	sub    $0x50,%rsp
  4028fb:	89 7d dc             	mov    %edi,-0x24(%rbp)
  4028fe:	48 89 75 d0          	mov    %rsi,-0x30(%rbp)
  402902:	48 89 55 c8          	mov    %rdx,-0x38(%rbp)
  402906:	ba c8 02 00 00       	mov    $0x2c8,%edx
  40290b:	be 2b 43 40 00       	mov    $0x40432b,%esi
  402910:	bf e0 3f 40 00       	mov    $0x403fe0,%edi
  402915:	b8 00 00 00 00       	mov    $0x0,%eax
  40291a:	e8 21 eb ff ff       	callq  401440 <printf@plt>
  40291f:	8b 45 dc             	mov    -0x24(%rbp),%eax
  402922:	48 63 d0             	movslq %eax,%rdx
  402925:	48 8b 75 c8          	mov    -0x38(%rbp),%rsi
  402929:	48 8b 45 d0          	mov    -0x30(%rbp),%rax
  40292d:	b9 02 00 00 00       	mov    $0x2,%ecx
  402932:	48 89 c7             	mov    %rax,%rdi
  402935:	e8 06 ee ff ff       	callq  401740 <cudaMemcpy@plt>
  40293a:	c7 45 fc 00 40 7f 01 	movl   $0x17f4000,-0x4(%rbp)
  402941:	8b 45 fc             	mov    -0x4(%rbp),%eax
  402944:	48 01 45 d0          	add    %rax,-0x30(%rbp)
  402948:	c7 45 e8 00 00 00 00 	movl   $0x0,-0x18(%rbp)
  40294f:	c7 45 ec 00 00 00 00 	movl   $0x0,-0x14(%rbp)
  402956:	c7 45 f0 00 00 00 00 	movl   $0x0,-0x10(%rbp)
  40295d:	e9 1e 01 00 00       	jmpq   402a80 <_Z10check_dataiPhPi+0x18d>
  402962:	8b 45 f0             	mov    -0x10(%rbp),%eax
  402965:	48 63 d0             	movslq %eax,%rdx
  402968:	48 8b 45 d0          	mov    -0x30(%rbp),%rax
  40296c:	48 01 d0             	add    %rdx,%rax
  40296f:	0f b7 00             	movzwl (%rax),%eax
  402972:	66 3d 08 06          	cmp    $0x608,%ax
  402976:	74 16                	je     40298e <_Z10check_dataiPhPi+0x9b>
  402978:	8b 45 f0             	mov    -0x10(%rbp),%eax
  40297b:	48 63 d0             	movslq %eax,%rdx
  40297e:	48 8b 45 d0          	mov    -0x30(%rbp),%rax
  402982:	48 01 d0             	add    %rdx,%rax
  402985:	0f b7 00             	movzwl (%rax),%eax
  402988:	66 3d 06 08          	cmp    $0x806,%ax
  40298c:	75 66                	jne    4029f4 <_Z10check_dataiPhPi+0x101>
  40298e:	83 45 ec 01          	addl   $0x1,-0x14(%rbp)
  402992:	8b 15 a8 69 20 00    	mov    0x2069a8(%rip),%edx        # 609340 <curr_num>
  402998:	8b 45 f0             	mov    -0x10(%rbp),%eax
  40299b:	48 98                	cltq   
  40299d:	48 8d 48 01          	lea    0x1(%rax),%rcx
  4029a1:	48 8b 45 d0          	mov    -0x30(%rbp),%rax
  4029a5:	48 01 c8             	add    %rcx,%rax
  4029a8:	0f b6 00             	movzbl (%rax),%eax
  4029ab:	0f b6 c8             	movzbl %al,%ecx
  4029ae:	8b 45 f0             	mov    -0x10(%rbp),%eax
  4029b1:	48 63 f0             	movslq %eax,%rsi
  4029b4:	48 8b 45 d0          	mov    -0x30(%rbp),%rax
  4029b8:	48 01 f0             	add    %rsi,%rax
  4029bb:	0f b6 00             	movzbl (%rax),%eax
  4029be:	0f b6 c0             	movzbl %al,%eax
  4029c1:	8b 75 f0             	mov    -0x10(%rbp),%esi
  4029c4:	89 54 24 08          	mov    %edx,0x8(%rsp)
  4029c8:	8b 55 ec             	mov    -0x14(%rbp),%edx
  4029cb:	89 14 24             	mov    %edx,(%rsp)
  4029ce:	41 89 f1             	mov    %esi,%r9d
  4029d1:	41 89 c8             	mov    %ecx,%r8d
  4029d4:	89 c1                	mov    %eax,%ecx
  4029d6:	ba de 02 00 00       	mov    $0x2de,%edx
  4029db:	be 2b 43 40 00       	mov    $0x40432b,%esi
  4029e0:	bf 38 40 40 00       	mov    $0x404038,%edi
  4029e5:	b8 00 00 00 00       	mov    $0x0,%eax
  4029ea:	e8 51 ea ff ff       	callq  401440 <printf@plt>
  4029ef:	e9 88 00 00 00       	jmpq   402a7c <_Z10check_dataiPhPi+0x189>
  4029f4:	8b 45 f0             	mov    -0x10(%rbp),%eax
  4029f7:	48 63 d0             	movslq %eax,%rdx
  4029fa:	48 8b 45 d0          	mov    -0x30(%rbp),%rax
  4029fe:	48 01 d0             	add    %rdx,%rax
  402a01:	0f b6 00             	movzbl (%rax),%eax
  402a04:	3c ab                	cmp    $0xab,%al
  402a06:	74 14                	je     402a1c <_Z10check_dataiPhPi+0x129>
  402a08:	8b 45 f0             	mov    -0x10(%rbp),%eax
  402a0b:	48 63 d0             	movslq %eax,%rdx
  402a0e:	48 8b 45 d0          	mov    -0x30(%rbp),%rax
  402a12:	48 01 d0             	add    %rdx,%rax
  402a15:	0f b6 00             	movzbl (%rax),%eax
  402a18:	3c ba                	cmp    $0xba,%al
  402a1a:	75 60                	jne    402a7c <_Z10check_dataiPhPi+0x189>
  402a1c:	8b 45 f0             	mov    -0x10(%rbp),%eax
  402a1f:	89 45 f4             	mov    %eax,-0xc(%rbp)
  402a22:	eb 4d                	jmp    402a71 <_Z10check_dataiPhPi+0x17e>
  402a24:	8b 45 f0             	mov    -0x10(%rbp),%eax
  402a27:	8b 55 f4             	mov    -0xc(%rbp),%edx
  402a2a:	29 c2                	sub    %eax,%edx
  402a2c:	89 d0                	mov    %edx,%eax
  402a2e:	83 e0 03             	and    $0x3,%eax
  402a31:	85 c0                	test   %eax,%eax
  402a33:	75 0a                	jne    402a3f <_Z10check_dataiPhPi+0x14c>
  402a35:	bf 0a 00 00 00       	mov    $0xa,%edi
  402a3a:	e8 c1 ea ff ff       	callq  401500 <putchar@plt>
  402a3f:	8b 45 f4             	mov    -0xc(%rbp),%eax
  402a42:	48 63 d0             	movslq %eax,%rdx
  402a45:	48 8b 45 d0          	mov    -0x30(%rbp),%rax
  402a49:	48 01 d0             	add    %rdx,%rax
  402a4c:	0f b6 00             	movzbl (%rax),%eax
  402a4f:	0f b6 c0             	movzbl %al,%eax
  402a52:	8b 55 f0             	mov    -0x10(%rbp),%edx
  402a55:	8b 4d f4             	mov    -0xc(%rbp),%ecx
  402a58:	29 d1                	sub    %edx,%ecx
  402a5a:	89 c2                	mov    %eax,%edx
  402a5c:	89 ce                	mov    %ecx,%esi
  402a5e:	bf 87 40 40 00       	mov    $0x404087,%edi
  402a63:	b8 00 00 00 00       	mov    $0x0,%eax
  402a68:	e8 d3 e9 ff ff       	callq  401440 <printf@plt>
  402a6d:	83 45 f4 01          	addl   $0x1,-0xc(%rbp)
  402a71:	8b 45 f0             	mov    -0x10(%rbp),%eax
  402a74:	83 c0 14             	add    $0x14,%eax
  402a77:	3b 45 f4             	cmp    -0xc(%rbp),%eax
  402a7a:	7f a8                	jg     402a24 <_Z10check_dataiPhPi+0x131>
  402a7c:	83 45 f0 01          	addl   $0x1,-0x10(%rbp)
  402a80:	8b 55 f0             	mov    -0x10(%rbp),%edx
  402a83:	8b 45 dc             	mov    -0x24(%rbp),%eax
  402a86:	2b 45 fc             	sub    -0x4(%rbp),%eax
  402a89:	39 c2                	cmp    %eax,%edx
  402a8b:	0f 82 d1 fe ff ff    	jb     402962 <_Z10check_dataiPhPi+0x6f>
  402a91:	c7 45 f8 00 00 00 00 	movl   $0x0,-0x8(%rbp)
  402a98:	eb 1c                	jmp    402ab6 <_Z10check_dataiPhPi+0x1c3>
  402a9a:	8b 45 f8             	mov    -0x8(%rbp),%eax
  402a9d:	48 63 d0             	movslq %eax,%rdx
  402aa0:	48 8b 45 d0          	mov    -0x30(%rbp),%rax
  402aa4:	48 01 d0             	add    %rdx,%rax
  402aa7:	0f b6 00             	movzbl (%rax),%eax
  402aaa:	84 c0                	test   %al,%al
  402aac:	74 04                	je     402ab2 <_Z10check_dataiPhPi+0x1bf>
  402aae:	83 45 e8 01          	addl   $0x1,-0x18(%rbp)
  402ab2:	83 45 f8 01          	addl   $0x1,-0x8(%rbp)
  402ab6:	8b 55 f8             	mov    -0x8(%rbp),%edx
  402ab9:	8b 45 dc             	mov    -0x24(%rbp),%eax
  402abc:	2b 45 fc             	sub    -0x4(%rbp),%eax
  402abf:	39 c2                	cmp    %eax,%edx
  402ac1:	72 d7                	jb     402a9a <_Z10check_dataiPhPi+0x1a7>
  402ac3:	ba ef 02 00 00       	mov    $0x2ef,%edx
  402ac8:	be 2b 43 40 00       	mov    $0x40432b,%esi
  402acd:	bf 98 40 40 00       	mov    $0x404098,%edi
  402ad2:	b8 00 00 00 00       	mov    $0x0,%eax
  402ad7:	e8 64 e9 ff ff       	callq  401440 <printf@plt>
  402adc:	c9                   	leaveq 
  402add:	c3                   	retq   

0000000000402ade <_Z14yhoon_xmit_arpPii>:
  402ade:	55                   	push   %rbp
  402adf:	48 89 e5             	mov    %rsp,%rbp
  402ae2:	48 81 ec d0 00 00 00 	sub    $0xd0,%rsp
  402ae9:	48 89 bd 38 ff ff ff 	mov    %rdi,-0xc8(%rbp)
  402af0:	89 b5 34 ff ff ff    	mov    %esi,-0xcc(%rbp)
  402af6:	ba 65 03 00 00       	mov    $0x365,%edx
  402afb:	be 36 43 40 00       	mov    $0x404336,%esi
  402b00:	bf f0 40 40 00       	mov    $0x4040f0,%edi
  402b05:	b8 00 00 00 00       	mov    $0x0,%eax
  402b0a:	e8 31 e9 ff ff       	callq  401440 <printf@plt>
  402b0f:	b9 10 00 00 00       	mov    $0x10,%ecx
  402b14:	ba 66 03 00 00       	mov    $0x366,%edx
  402b19:	be 36 43 40 00       	mov    $0x404336,%esi
  402b1e:	bf 3c 41 40 00       	mov    $0x40413c,%edi
  402b23:	b8 00 00 00 00       	mov    $0x0,%eax
  402b28:	e8 13 e9 ff ff       	callq  401440 <printf@plt>
  402b2d:	48 c7 85 60 ff ff ff 	movq   $0x40415a,-0xa0(%rbp)
  402b34:	5a 41 40 00 
  402b38:	48 8b 85 60 ff ff ff 	mov    -0xa0(%rbp),%rax
  402b3f:	be 02 00 00 00       	mov    $0x2,%esi
  402b44:	48 89 c7             	mov    %rax,%rdi
  402b47:	b8 00 00 00 00       	mov    $0x0,%eax
  402b4c:	e8 5f ec ff ff       	callq  4017b0 <open@plt>
  402b51:	89 85 44 ff ff ff    	mov    %eax,-0xbc(%rbp)
  402b57:	8b 85 44 ff ff ff    	mov    -0xbc(%rbp),%eax
  402b5d:	be 01 00 00 00       	mov    $0x1,%esi
  402b62:	89 c7                	mov    %eax,%edi
  402b64:	b8 00 00 00 00       	mov    $0x0,%eax
  402b69:	e8 12 e9 ff ff       	callq  401480 <ioctl@plt>
  402b6e:	bf 3c 00 00 00       	mov    $0x3c,%edi
  402b73:	e8 a8 eb ff ff       	callq  401720 <htonl@plt>
  402b78:	89 c6                	mov    %eax,%esi
  402b7a:	bf 65 41 40 00       	mov    $0x404165,%edi
  402b7f:	b8 00 00 00 00       	mov    $0x0,%eax
  402b84:	e8 b7 e8 ff ff       	callq  401440 <printf@plt>
  402b89:	48 c7 85 68 ff ff ff 	movq   $0x8000,-0x98(%rbp)
  402b90:	00 80 00 00 
  402b94:	8b 85 44 ff ff ff    	mov    -0xbc(%rbp),%eax
  402b9a:	41 b9 00 00 00 00    	mov    $0x0,%r9d
  402ba0:	41 89 c0             	mov    %eax,%r8d
  402ba3:	b9 01 00 00 00       	mov    $0x1,%ecx
  402ba8:	ba 03 00 00 00       	mov    $0x3,%edx
  402bad:	be 00 80 02 00       	mov    $0x28000,%esi
  402bb2:	bf 00 00 00 00       	mov    $0x0,%edi
  402bb7:	e8 04 ec ff ff       	callq  4017c0 <mmap@plt>
  402bbc:	48 89 85 70 ff ff ff 	mov    %rax,-0x90(%rbp)
  402bc3:	48 8b 85 70 ff ff ff 	mov    -0x90(%rbp),%rax
  402bca:	ba 04 00 00 00       	mov    $0x4,%edx
  402bcf:	be 00 80 00 00       	mov    $0x8000,%esi
  402bd4:	48 89 c7             	mov    %rax,%rdi
  402bd7:	e8 f4 eb ff ff       	callq  4017d0 <cudaHostRegister@plt>
  402bdc:	48 8b 8d 70 ff ff ff 	mov    -0x90(%rbp),%rcx
  402be3:	48 8d 85 50 ff ff ff 	lea    -0xb0(%rbp),%rax
  402bea:	ba 00 00 00 00       	mov    $0x0,%edx
  402bef:	48 89 ce             	mov    %rcx,%rsi
  402bf2:	48 89 c7             	mov    %rax,%rdi
  402bf5:	e8 a6 ea ff ff       	callq  4016a0 <cudaHostGetDevicePointer@plt>
  402bfa:	c7 85 40 ff ff ff 00 	movl   $0x0,-0xc0(%rbp)
  402c01:	00 00 00 
  402c04:	eb 56                	jmp    402c5c <_Z14yhoon_xmit_arpPii+0x17e>
  402c06:	8b 85 40 ff ff ff    	mov    -0xc0(%rbp),%eax
  402c0c:	c1 e0 06             	shl    $0x6,%eax
  402c0f:	48 98                	cltq   
  402c11:	48 8d 90 18 60 00 00 	lea    0x6018(%rax),%rdx
  402c18:	48 8b 85 70 ff ff ff 	mov    -0x90(%rbp),%rax
  402c1f:	48 01 c2             	add    %rax,%rdx
  402c22:	8b 85 40 ff ff ff    	mov    -0xc0(%rbp),%eax
  402c28:	48 98                	cltq   
  402c2a:	48 89 54 c5 a0       	mov    %rdx,-0x60(%rbp,%rax,8)
  402c2f:	8b 85 40 ff ff ff    	mov    -0xc0(%rbp),%eax
  402c35:	48 98                	cltq   
  402c37:	48 8b 44 c5 a0       	mov    -0x60(%rbp,%rax,8),%rax
  402c3c:	8b 10                	mov    (%rax),%edx
  402c3e:	8b 85 40 ff ff ff    	mov    -0xc0(%rbp),%eax
  402c44:	89 c6                	mov    %eax,%esi
  402c46:	bf 7a 41 40 00       	mov    $0x40417a,%edi
  402c4b:	b8 00 00 00 00       	mov    $0x0,%eax
  402c50:	e8 eb e7 ff ff       	callq  401440 <printf@plt>
  402c55:	83 85 40 ff ff ff 01 	addl   $0x1,-0xc0(%rbp)
  402c5c:	83 bd 40 ff ff ff 00 	cmpl   $0x0,-0xc0(%rbp)
  402c63:	7e a1                	jle    402c06 <_Z14yhoon_xmit_arpPii+0x128>
  402c65:	48 8b 85 70 ff ff ff 	mov    -0x90(%rbp),%rax
  402c6c:	48 05 00 80 00 00    	add    $0x8000,%rax
  402c72:	48 89 85 78 ff ff ff 	mov    %rax,-0x88(%rbp)
  402c79:	48 8b 85 78 ff ff ff 	mov    -0x88(%rbp),%rax
  402c80:	ba 04 00 00 00       	mov    $0x4,%edx
  402c85:	be 00 00 02 00       	mov    $0x20000,%esi
  402c8a:	48 89 c7             	mov    %rax,%rdi
  402c8d:	e8 3e eb ff ff       	callq  4017d0 <cudaHostRegister@plt>
  402c92:	48 8b 8d 78 ff ff ff 	mov    -0x88(%rbp),%rcx
  402c99:	48 8d 85 58 ff ff ff 	lea    -0xa8(%rbp),%rax
  402ca0:	ba 00 00 00 00       	mov    $0x0,%edx
  402ca5:	48 89 ce             	mov    %rcx,%rsi
  402ca8:	48 89 c7             	mov    %rax,%rdi
  402cab:	e8 f0 e9 ff ff       	callq  4016a0 <cudaHostGetDevicePointer@plt>
  402cb0:	48 8b 45 a0          	mov    -0x60(%rbp),%rax
  402cb4:	8b 00                	mov    (%rax),%eax
  402cb6:	89 85 48 ff ff ff    	mov    %eax,-0xb8(%rbp)
  402cbc:	48 8d 45 90          	lea    -0x70(%rbp),%rax
  402cc0:	b9 01 00 00 00       	mov    $0x1,%ecx
  402cc5:	ba 01 00 00 00       	mov    $0x1,%edx
  402cca:	be 01 00 00 00       	mov    $0x1,%esi
  402ccf:	48 89 c7             	mov    %rax,%rdi
  402cd2:	e8 c3 09 00 00       	callq  40369a <_ZN4dim3C1Ejjj>
  402cd7:	48 8d 45 80          	lea    -0x80(%rbp),%rax
  402cdb:	b9 01 00 00 00       	mov    $0x1,%ecx
  402ce0:	ba 01 00 00 00       	mov    $0x1,%edx
  402ce5:	be 01 00 00 00       	mov    $0x1,%esi
  402cea:	48 89 c7             	mov    %rax,%rdi
  402ced:	e8 a8 09 00 00       	callq  40369a <_ZN4dim3C1Ejjj>
  402cf2:	48 8b 55 90          	mov    -0x70(%rbp),%rdx
  402cf6:	8b 4d 98             	mov    -0x68(%rbp),%ecx
  402cf9:	48 8b 75 80          	mov    -0x80(%rbp),%rsi
  402cfd:	8b 45 88             	mov    -0x78(%rbp),%eax
  402d00:	41 b9 00 00 00 00    	mov    $0x0,%r9d
  402d06:	41 b8 00 00 00 00    	mov    $0x0,%r8d
  402d0c:	48 89 f7             	mov    %rsi,%rdi
  402d0f:	89 c6                	mov    %eax,%esi
  402d11:	e8 8a e8 ff ff       	callq  4015a0 <cudaConfigureCall@plt>
  402d16:	85 c0                	test   %eax,%eax
  402d18:	75 2c                	jne    402d46 <_Z14yhoon_xmit_arpPii+0x268>
  402d1a:	48 8b b5 58 ff ff ff 	mov    -0xa8(%rbp),%rsi
  402d21:	48 8b 85 50 ff ff ff 	mov    -0xb0(%rbp),%rax
  402d28:	8b bd 34 ff ff ff    	mov    -0xcc(%rbp),%edi
  402d2e:	48 8b 8d 38 ff ff ff 	mov    -0xc8(%rbp),%rcx
  402d35:	8b 95 48 ff ff ff    	mov    -0xb8(%rbp),%edx
  402d3b:	41 89 f8             	mov    %edi,%r8d
  402d3e:	48 89 c7             	mov    %rax,%rdi
  402d41:	e8 b7 07 00 00       	callq  4034fd <_Z13doorbell_testPvS_jPii>
  402d46:	e8 a5 e9 ff ff       	callq  4016f0 <cudaDeviceSynchronize@plt>
  402d4b:	85 c0                	test   %eax,%eax
  402d4d:	0f 95 c0             	setne  %al
  402d50:	84 c0                	test   %al,%al
  402d52:	74 79                	je     402dcd <_Z14yhoon_xmit_arpPii+0x2ef>
  402d54:	e8 97 e7 ff ff       	callq  4014f0 <cudaGetLastError@plt>
  402d59:	89 85 4c ff ff ff    	mov    %eax,-0xb4(%rbp)
  402d5f:	83 bd 4c ff ff ff 00 	cmpl   $0x0,-0xb4(%rbp)
  402d66:	74 65                	je     402dcd <_Z14yhoon_xmit_arpPii+0x2ef>
  402d68:	8b 85 4c ff ff ff    	mov    -0xb4(%rbp),%eax
  402d6e:	89 c7                	mov    %eax,%edi
  402d70:	e8 6b e8 ff ff       	callq  4015e0 <cudaGetErrorString@plt>
  402d75:	48 89 c2             	mov    %rax,%rdx
  402d78:	48 8b 05 91 65 20 00 	mov    0x206591(%rip),%rax        # 609310 <stderr@@GLIBC_2.2.5>
  402d7f:	41 b9 8c 03 00 00    	mov    $0x38c,%r9d
  402d85:	41 b8 86 41 40 00    	mov    $0x404186,%r8d
  402d8b:	48 89 d1             	mov    %rdx,%rcx
  402d8e:	ba 94 41 40 00       	mov    $0x404194,%edx
  402d93:	be b0 41 40 00       	mov    $0x4041b0,%esi
  402d98:	48 89 c7             	mov    %rax,%rdi
  402d9b:	b8 00 00 00 00       	mov    $0x0,%eax
  402da0:	e8 bb e9 ff ff       	callq  401760 <fprintf@plt>
  402da5:	48 8b 05 64 65 20 00 	mov    0x206564(%rip),%rax        # 609310 <stderr@@GLIBC_2.2.5>
  402dac:	48 89 c1             	mov    %rax,%rcx
  402daf:	ba 16 00 00 00       	mov    $0x16,%edx
  402db4:	be 01 00 00 00       	mov    $0x1,%esi
  402db9:	bf cf 41 40 00       	mov    $0x4041cf,%edi
  402dbe:	e8 4d e9 ff ff       	callq  401710 <fwrite@plt>
  402dc3:	bf 01 00 00 00       	mov    $0x1,%edi
  402dc8:	e8 03 e7 ff ff       	callq  4014d0 <exit@plt>
  402dcd:	8b 85 48 ff ff ff    	mov    -0xb8(%rbp),%eax
  402dd3:	89 05 67 65 20 00    	mov    %eax,0x206567(%rip)        # 609340 <curr_num>
  402dd9:	ba 90 03 00 00       	mov    $0x390,%edx
  402dde:	be 36 43 40 00       	mov    $0x404336,%esi
  402de3:	bf e8 41 40 00       	mov    $0x4041e8,%edi
  402de8:	b8 00 00 00 00       	mov    $0x0,%eax
  402ded:	e8 4e e6 ff ff       	callq  401440 <printf@plt>
  402df2:	c9                   	leaveq 
  402df3:	c3                   	retq   

0000000000402df4 <main>:
  402df4:	55                   	push   %rbp
  402df5:	48 89 e5             	mov    %rsp,%rbp
  402df8:	41 55                	push   %r13
  402dfa:	41 54                	push   %r12
  402dfc:	53                   	push   %rbx
  402dfd:	48 81 ec 08 03 00 00 	sub    $0x308,%rsp
  402e04:	89 bd ec fc ff ff    	mov    %edi,-0x314(%rbp)
  402e0a:	48 89 b5 e0 fc ff ff 	mov    %rsi,-0x320(%rbp)
  402e11:	64 48 8b 04 25 28 00 	mov    %fs:0x28,%rax
  402e18:	00 00 
  402e1a:	48 89 45 d8          	mov    %rax,-0x28(%rbp)
  402e1e:	31 c0                	xor    %eax,%eax
  402e20:	ba a0 03 00 00       	mov    $0x3a0,%edx
  402e25:	be 45 43 40 00       	mov    $0x404345,%esi
  402e2a:	bf 32 42 40 00       	mov    $0x404232,%edi
  402e2f:	b8 00 00 00 00       	mov    $0x0,%eax
  402e34:	e8 07 e6 ff ff       	callq  401440 <printf@plt>
  402e39:	c7 85 08 fd ff ff 00 	movl   $0x0,-0x2f8(%rbp)
  402e40:	00 00 00 
  402e43:	48 c7 85 30 fd ff ff 	movq   $0x3200000,-0x2d0(%rbp)
  402e4a:	00 00 20 03 
  402e4e:	48 8b 85 30 fd ff ff 	mov    -0x2d0(%rbp),%rax
  402e55:	48 05 ff ff 00 00    	add    $0xffff,%rax
  402e5b:	66 b8 00 00          	mov    $0x0,%ax
  402e5f:	48 89 85 38 fd ff ff 	mov    %rax,-0x2c8(%rbp)
  402e66:	c7 85 f4 fc ff ff 00 	movl   $0x0,-0x30c(%rbp)
  402e6d:	00 00 00 
  402e70:	48 8b 85 38 fd ff ff 	mov    -0x2c8(%rbp),%rax
  402e77:	48 89 c7             	mov    %rax,%rdi
  402e7a:	e8 a1 e6 ff ff       	callq  401520 <malloc@plt>
  402e7f:	48 89 85 40 fd ff ff 	mov    %rax,-0x2c0(%rbp)
  402e86:	48 8d 85 f4 fc ff ff 	lea    -0x30c(%rbp),%rax
  402e8d:	48 89 c7             	mov    %rax,%rdi
  402e90:	e8 8b e7 ff ff       	callq  401620 <cudaGetDeviceCount@plt>
  402e95:	c7 85 00 fd ff ff 00 	movl   $0x0,-0x300(%rbp)
  402e9c:	00 00 00 
  402e9f:	e9 c1 00 00 00       	jmpq   402f65 <main+0x171>
  402ea4:	8b 95 00 fd ff ff    	mov    -0x300(%rbp),%edx
  402eaa:	48 8d 85 50 fd ff ff 	lea    -0x2b0(%rbp),%rax
  402eb1:	89 d6                	mov    %edx,%esi
  402eb3:	48 89 c7             	mov    %rax,%rdi
  402eb6:	e8 85 e7 ff ff       	callq  401640 <cudaGetDeviceProperties@plt>
  402ebb:	8b 9d 7c ff ff ff    	mov    -0x84(%rbp),%ebx
  402ec1:	44 8b a5 78 ff ff ff 	mov    -0x88(%rbp),%r12d
  402ec8:	44 8b 6d 80          	mov    -0x80(%rbp),%r13d
  402ecc:	be 41 42 40 00       	mov    $0x404241,%esi
  402ed1:	bf 00 92 60 00       	mov    $0x609200,%edi
  402ed6:	e8 95 e6 ff ff       	callq  401570 <_ZStlsISt11char_traitsIcEERSt13basic_ostreamIcT_ES5_PKc@plt>
  402edb:	8b 95 00 fd ff ff    	mov    -0x300(%rbp),%edx
  402ee1:	89 d6                	mov    %edx,%esi
  402ee3:	48 89 c7             	mov    %rax,%rdi
  402ee6:	e8 65 e5 ff ff       	callq  401450 <_ZNSolsEi@plt>
  402eeb:	be 49 42 40 00       	mov    $0x404249,%esi
  402ef0:	48 89 c7             	mov    %rax,%rdi
  402ef3:	e8 78 e6 ff ff       	callq  401570 <_ZStlsISt11char_traitsIcEERSt13basic_ostreamIcT_ES5_PKc@plt>
  402ef8:	48 8d 95 50 fd ff ff 	lea    -0x2b0(%rbp),%rdx
  402eff:	48 89 d6             	mov    %rdx,%rsi
  402f02:	48 89 c7             	mov    %rax,%rdi
  402f05:	e8 66 e6 ff ff       	callq  401570 <_ZStlsISt11char_traitsIcEERSt13basic_ostreamIcT_ES5_PKc@plt>
  402f0a:	be 50 42 40 00       	mov    $0x404250,%esi
  402f0f:	48 89 c7             	mov    %rax,%rdi
  402f12:	e8 59 e6 ff ff       	callq  401570 <_ZStlsISt11char_traitsIcEERSt13basic_ostreamIcT_ES5_PKc@plt>
  402f17:	44 89 ee             	mov    %r13d,%esi
  402f1a:	48 89 c7             	mov    %rax,%rdi
  402f1d:	e8 2e e5 ff ff       	callq  401450 <_ZNSolsEi@plt>
  402f22:	be 5e 42 40 00       	mov    $0x40425e,%esi
  402f27:	48 89 c7             	mov    %rax,%rdi
  402f2a:	e8 41 e6 ff ff       	callq  401570 <_ZStlsISt11char_traitsIcEERSt13basic_ostreamIcT_ES5_PKc@plt>
  402f2f:	44 89 e6             	mov    %r12d,%esi
  402f32:	48 89 c7             	mov    %rax,%rdi
  402f35:	e8 16 e5 ff ff       	callq  401450 <_ZNSolsEi@plt>
  402f3a:	be 65 42 40 00       	mov    $0x404265,%esi
  402f3f:	48 89 c7             	mov    %rax,%rdi
  402f42:	e8 29 e6 ff ff       	callq  401570 <_ZStlsISt11char_traitsIcEERSt13basic_ostreamIcT_ES5_PKc@plt>
  402f47:	89 de                	mov    %ebx,%esi
  402f49:	48 89 c7             	mov    %rax,%rdi
  402f4c:	e8 ff e4 ff ff       	callq  401450 <_ZNSolsEi@plt>
  402f51:	be 00 17 40 00       	mov    $0x401700,%esi
  402f56:	48 89 c7             	mov    %rax,%rdi
  402f59:	e8 82 e7 ff ff       	callq  4016e0 <_ZNSolsEPFRSoS_E@plt>
  402f5e:	83 85 00 fd ff ff 01 	addl   $0x1,-0x300(%rbp)
  402f65:	8b 85 f4 fc ff ff    	mov    -0x30c(%rbp),%eax
  402f6b:	39 85 00 fd ff ff    	cmp    %eax,-0x300(%rbp)
  402f71:	0f 8c 2d ff ff ff    	jl     402ea4 <main+0xb0>
  402f77:	be 6f 42 40 00       	mov    $0x40426f,%esi
  402f7c:	bf 00 92 60 00       	mov    $0x609200,%edi
  402f81:	e8 ea e5 ff ff       	callq  401570 <_ZStlsISt11char_traitsIcEERSt13basic_ostreamIcT_ES5_PKc@plt>
  402f86:	8b 95 08 fd ff ff    	mov    -0x2f8(%rbp),%edx
  402f8c:	89 d6                	mov    %edx,%esi
  402f8e:	48 89 c7             	mov    %rax,%rdi
  402f91:	e8 ba e4 ff ff       	callq  401450 <_ZNSolsEi@plt>
  402f96:	be 00 17 40 00       	mov    $0x401700,%esi
  402f9b:	48 89 c7             	mov    %rax,%rdi
  402f9e:	e8 3d e7 ff ff       	callq  4016e0 <_ZNSolsEPFRSoS_E@plt>
  402fa3:	be 81 42 40 00       	mov    $0x404281,%esi
  402fa8:	bf 00 92 60 00       	mov    $0x609200,%edi
  402fad:	e8 be e5 ff ff       	callq  401570 <_ZStlsISt11char_traitsIcEERSt13basic_ostreamIcT_ES5_PKc@plt>
  402fb2:	48 8b 95 30 fd ff ff 	mov    -0x2d0(%rbp),%rdx
  402fb9:	48 89 d6             	mov    %rdx,%rsi
  402fbc:	48 89 c7             	mov    %rax,%rdi
  402fbf:	e8 4c e6 ff ff       	callq  401610 <_ZNSolsEm@plt>
  402fc4:	be 89 42 40 00       	mov    $0x404289,%esi
  402fc9:	48 89 c7             	mov    %rax,%rdi
  402fcc:	e8 9f e5 ff ff       	callq  401570 <_ZStlsISt11char_traitsIcEERSt13basic_ostreamIcT_ES5_PKc@plt>
  402fd1:	48 8b 95 38 fd ff ff 	mov    -0x2c8(%rbp),%rdx
  402fd8:	48 89 d6             	mov    %rdx,%rsi
  402fdb:	48 89 c7             	mov    %rax,%rdi
  402fde:	e8 2d e6 ff ff       	callq  401610 <_ZNSolsEm@plt>
  402fe3:	be 00 17 40 00       	mov    $0x401700,%esi
  402fe8:	48 89 c7             	mov    %rax,%rdi
  402feb:	e8 f0 e6 ff ff       	callq  4016e0 <_ZNSolsEPFRSoS_E@plt>
  402ff0:	8b 85 08 fd ff ff    	mov    -0x2f8(%rbp),%eax
  402ff6:	89 c7                	mov    %eax,%edi
  402ff8:	e8 73 e6 ff ff       	callq  401670 <cudaSetDevice@plt>
  402ffd:	89 85 0c fd ff ff    	mov    %eax,-0x2f4(%rbp)
  403003:	83 bd 0c fd ff ff 00 	cmpl   $0x0,-0x2f4(%rbp)
  40300a:	74 29                	je     403035 <main+0x241>
  40300c:	48 8b 05 0d 63 20 00 	mov    0x20630d(%rip),%rax        # 609320 <stdout@@GLIBC_2.2.5>
  403013:	41 b8 ba 03 00 00    	mov    $0x3ba,%r8d
  403019:	b9 86 41 40 00       	mov    $0x404186,%ecx
  40301e:	ba 92 42 40 00       	mov    $0x404292,%edx
  403023:	be f0 3c 40 00       	mov    $0x403cf0,%esi
  403028:	48 89 c7             	mov    %rax,%rdi
  40302b:	b8 00 00 00 00       	mov    $0x0,%eax
  403030:	e8 2b e7 ff ff       	callq  401760 <fprintf@plt>
  403035:	48 8d 85 20 fd ff ff 	lea    -0x2e0(%rbp),%rax
  40303c:	be 00 00 00 00       	mov    $0x0,%esi
  403041:	48 89 c7             	mov    %rax,%rdi
  403044:	e8 07 e7 ff ff       	callq  401750 <cudaMalloc@plt>
  403049:	89 85 10 fd ff ff    	mov    %eax,-0x2f0(%rbp)
  40304f:	83 bd 10 fd ff ff 00 	cmpl   $0x0,-0x2f0(%rbp)
  403056:	74 29                	je     403081 <main+0x28d>
  403058:	48 8b 05 c1 62 20 00 	mov    0x2062c1(%rip),%rax        # 609320 <stdout@@GLIBC_2.2.5>
  40305f:	41 b8 be 03 00 00    	mov    $0x3be,%r8d
  403065:	b9 86 41 40 00       	mov    $0x404186,%ecx
  40306a:	ba 92 42 40 00       	mov    $0x404292,%edx
  40306f:	be f0 3c 40 00       	mov    $0x403cf0,%esi
  403074:	48 89 c7             	mov    %rax,%rdi
  403077:	b8 00 00 00 00       	mov    $0x0,%eax
  40307c:	e8 df e6 ff ff       	callq  401760 <fprintf@plt>
  403081:	48 8b 95 38 fd ff ff 	mov    -0x2c8(%rbp),%rdx
  403088:	48 8d 85 28 fd ff ff 	lea    -0x2d8(%rbp),%rax
  40308f:	48 89 d6             	mov    %rdx,%rsi
  403092:	48 89 c7             	mov    %rax,%rdi
  403095:	e8 b6 e6 ff ff       	callq  401750 <cudaMalloc@plt>
  40309a:	89 85 14 fd ff ff    	mov    %eax,-0x2ec(%rbp)
  4030a0:	83 bd 14 fd ff ff 00 	cmpl   $0x0,-0x2ec(%rbp)
  4030a7:	74 29                	je     4030d2 <main+0x2de>
  4030a9:	48 8b 05 70 62 20 00 	mov    0x206270(%rip),%rax        # 609320 <stdout@@GLIBC_2.2.5>
  4030b0:	41 b8 c1 03 00 00    	mov    $0x3c1,%r8d
  4030b6:	b9 86 41 40 00       	mov    $0x404186,%ecx
  4030bb:	ba 92 42 40 00       	mov    $0x404292,%edx
  4030c0:	be f0 3c 40 00       	mov    $0x403cf0,%esi
  4030c5:	48 89 c7             	mov    %rax,%rdi
  4030c8:	b8 00 00 00 00       	mov    $0x0,%eax
  4030cd:	e8 8e e6 ff ff       	callq  401760 <fprintf@plt>
  4030d2:	48 8b 9d 28 fd ff ff 	mov    -0x2d8(%rbp),%rbx
  4030d9:	be a8 42 40 00       	mov    $0x4042a8,%esi
  4030de:	bf 00 92 60 00       	mov    $0x609200,%edi
  4030e3:	e8 88 e4 ff ff       	callq  401570 <_ZStlsISt11char_traitsIcEERSt13basic_ostreamIcT_ES5_PKc@plt>
  4030e8:	be e0 37 40 00       	mov    $0x4037e0,%esi
  4030ed:	48 89 c7             	mov    %rax,%rdi
  4030f0:	e8 9b e6 ff ff       	callq  401790 <_ZNSolsEPFRSt8ios_baseS0_E@plt>
  4030f5:	48 89 de             	mov    %rbx,%rsi
  4030f8:	48 89 c7             	mov    %rax,%rdi
  4030fb:	e8 d0 e4 ff ff       	callq  4015d0 <_ZNSolsEPKv@plt>
  403100:	be b8 37 40 00       	mov    $0x4037b8,%esi
  403105:	48 89 c7             	mov    %rax,%rdi
  403108:	e8 83 e6 ff ff       	callq  401790 <_ZNSolsEPFRSt8ios_baseS0_E@plt>
  40310d:	be 00 17 40 00       	mov    $0x401700,%esi
  403112:	48 89 c7             	mov    %rax,%rdi
  403115:	e8 c6 e5 ff ff       	callq  4016e0 <_ZNSolsEPFRSoS_E@plt>
  40311a:	c7 85 f8 fc ff ff 01 	movl   $0x1,-0x308(%rbp)
  403121:	00 00 00 
  403124:	48 8b 85 28 fd ff ff 	mov    -0x2d8(%rbp),%rax
  40312b:	48 89 c2             	mov    %rax,%rdx
  40312e:	48 8d 85 f8 fc ff ff 	lea    -0x308(%rbp),%rax
  403135:	be 06 00 00 00       	mov    $0x6,%esi
  40313a:	48 89 c7             	mov    %rax,%rdi
  40313d:	e8 5e e6 ff ff       	callq  4017a0 <cuPointerSetAttribute@plt>
  403142:	89 85 18 fd ff ff    	mov    %eax,-0x2e8(%rbp)
  403148:	83 bd 18 fd ff ff 00 	cmpl   $0x0,-0x2e8(%rbp)
  40314f:	74 29                	je     40317a <main+0x386>
  403151:	48 8b 05 c8 61 20 00 	mov    0x2061c8(%rip),%rax        # 609320 <stdout@@GLIBC_2.2.5>
  403158:	41 b8 c5 03 00 00    	mov    $0x3c5,%r8d
  40315e:	b9 86 41 40 00       	mov    $0x404186,%ecx
  403163:	ba b5 42 40 00       	mov    $0x4042b5,%edx
  403168:	be f0 3c 40 00       	mov    $0x403cf0,%esi
  40316d:	48 89 c7             	mov    %rax,%rdi
  403170:	b8 00 00 00 00       	mov    $0x0,%eax
  403175:	e8 e6 e5 ff ff       	callq  401760 <fprintf@plt>
  40317a:	e8 26 f5 ff ff       	callq  4026a5 <_Z7my_openv>
  40317f:	48 89 85 48 fd ff ff 	mov    %rax,-0x2b8(%rbp)
  403186:	48 83 bd 48 fd ff ff 	cmpq   $0x0,-0x2b8(%rbp)
  40318d:	00 
  40318e:	75 29                	jne    4031b9 <main+0x3c5>
  403190:	48 8b 05 89 61 20 00 	mov    0x206189(%rip),%rax        # 609320 <stdout@@GLIBC_2.2.5>
  403197:	41 b8 c9 03 00 00    	mov    $0x3c9,%r8d
  40319d:	b9 86 41 40 00       	mov    $0x404186,%ecx
  4031a2:	ba cc 42 40 00       	mov    $0x4042cc,%edx
  4031a7:	be f0 3c 40 00       	mov    $0x403cf0,%esi
  4031ac:	48 89 c7             	mov    %rax,%rdi
  4031af:	b8 00 00 00 00       	mov    $0x0,%eax
  4031b4:	e8 a7 e5 ff ff       	callq  401760 <fprintf@plt>
  4031b9:	48 8b 85 28 fd ff ff 	mov    -0x2d8(%rbp),%rax
  4031c0:	48 89 c6             	mov    %rax,%rsi
  4031c3:	48 8d 8d fc fc ff ff 	lea    -0x304(%rbp),%rcx
  4031ca:	48 8b 95 38 fd ff ff 	mov    -0x2c8(%rbp),%rdx
  4031d1:	48 8b 85 48 fd ff ff 	mov    -0x2b8(%rbp),%rax
  4031d8:	49 89 c9             	mov    %rcx,%r9
  4031db:	41 b8 00 00 00 00    	mov    $0x0,%r8d
  4031e1:	b9 00 00 00 00       	mov    $0x0,%ecx
  4031e6:	48 89 c7             	mov    %rax,%rdi
  4031e9:	e8 08 f4 ff ff       	callq  4025f6 <_Z13my_pin_bufferP2mymmmjPj>
  4031ee:	85 c0                	test   %eax,%eax
  4031f0:	0f 95 c0             	setne  %al
  4031f3:	84 c0                	test   %al,%al
  4031f5:	74 1c                	je     403213 <main+0x41f>
  4031f7:	be de 42 40 00       	mov    $0x4042de,%esi
  4031fc:	bf 00 92 60 00       	mov    $0x609200,%edi
  403201:	e8 6a e3 ff ff       	callq  401570 <_ZStlsISt11char_traitsIcEERSt13basic_ostreamIcT_ES5_PKc@plt>
  403206:	be 00 17 40 00       	mov    $0x401700,%esi
  40320b:	48 89 c7             	mov    %rax,%rdi
  40320e:	e8 cd e4 ff ff       	callq  4016e0 <_ZNSolsEPFRSoS_E@plt>
  403213:	48 8b 85 38 fd ff ff 	mov    -0x2c8(%rbp),%rax
  40321a:	89 c2                	mov    %eax,%edx
  40321c:	48 8b 85 28 fd ff ff 	mov    -0x2d8(%rbp),%rax
  403223:	89 d6                	mov    %edx,%esi
  403225:	48 89 c7             	mov    %rax,%rdi
  403228:	e8 b1 f8 ff ff       	callq  402ade <_Z14yhoon_xmit_arpPii>
  40322d:	e8 be e4 ff ff       	callq  4016f0 <cudaDeviceSynchronize@plt>
  403232:	85 c0                	test   %eax,%eax
  403234:	0f 95 c0             	setne  %al
  403237:	84 c0                	test   %al,%al
  403239:	74 79                	je     4032b4 <main+0x4c0>
  40323b:	e8 b0 e2 ff ff       	callq  4014f0 <cudaGetLastError@plt>
  403240:	89 85 1c fd ff ff    	mov    %eax,-0x2e4(%rbp)
  403246:	83 bd 1c fd ff ff 00 	cmpl   $0x0,-0x2e4(%rbp)
  40324d:	74 65                	je     4032b4 <main+0x4c0>
  40324f:	8b 85 1c fd ff ff    	mov    -0x2e4(%rbp),%eax
  403255:	89 c7                	mov    %eax,%edi
  403257:	e8 84 e3 ff ff       	callq  4015e0 <cudaGetErrorString@plt>
  40325c:	48 89 c2             	mov    %rax,%rdx
  40325f:	48 8b 05 aa 60 20 00 	mov    0x2060aa(%rip),%rax        # 609310 <stderr@@GLIBC_2.2.5>
  403266:	41 b9 d9 03 00 00    	mov    $0x3d9,%r9d
  40326c:	41 b8 86 41 40 00    	mov    $0x404186,%r8d
  403272:	48 89 d1             	mov    %rdx,%rcx
  403275:	ba e5 42 40 00       	mov    $0x4042e5,%edx
  40327a:	be b0 41 40 00       	mov    $0x4041b0,%esi
  40327f:	48 89 c7             	mov    %rax,%rdi
  403282:	b8 00 00 00 00       	mov    $0x0,%eax
  403287:	e8 d4 e4 ff ff       	callq  401760 <fprintf@plt>
  40328c:	48 8b 05 7d 60 20 00 	mov    0x20607d(%rip),%rax        # 609310 <stderr@@GLIBC_2.2.5>
  403293:	48 89 c1             	mov    %rax,%rcx
  403296:	ba 16 00 00 00       	mov    $0x16,%edx
  40329b:	be 01 00 00 00       	mov    $0x1,%esi
  4032a0:	bf cf 41 40 00       	mov    $0x4041cf,%edi
  4032a5:	e8 66 e4 ff ff       	callq  401710 <fwrite@plt>
  4032aa:	bf 01 00 00 00       	mov    $0x1,%edi
  4032af:	e8 1c e2 ff ff       	callq  4014d0 <exit@plt>
  4032b4:	c7 85 04 fd ff ff 00 	movl   $0x0,-0x2fc(%rbp)
  4032bb:	00 00 00 
  4032be:	eb 30                	jmp    4032f0 <main+0x4fc>
  4032c0:	48 8b 95 28 fd ff ff 	mov    -0x2d8(%rbp),%rdx
  4032c7:	48 8b 85 38 fd ff ff 	mov    -0x2c8(%rbp),%rax
  4032ce:	48 8b 8d 40 fd ff ff 	mov    -0x2c0(%rbp),%rcx
  4032d5:	48 89 ce             	mov    %rcx,%rsi
  4032d8:	89 c7                	mov    %eax,%edi
  4032da:	e8 14 f6 ff ff       	callq  4028f3 <_Z10check_dataiPhPi>
  4032df:	bf 40 42 0f 00       	mov    $0xf4240,%edi
  4032e4:	e8 47 e3 ff ff       	callq  401630 <usleep@plt>
  4032e9:	83 85 04 fd ff ff 01 	addl   $0x1,-0x2fc(%rbp)
  4032f0:	83 bd 04 fd ff ff 00 	cmpl   $0x0,-0x2fc(%rbp)
  4032f7:	7e c7                	jle    4032c0 <main+0x4cc>
  4032f9:	be f4 42 40 00       	mov    $0x4042f4,%esi
  4032fe:	bf 00 92 60 00       	mov    $0x609200,%edi
  403303:	e8 68 e2 ff ff       	callq  401570 <_ZStlsISt11char_traitsIcEERSt13basic_ostreamIcT_ES5_PKc@plt>
  403308:	be 00 17 40 00       	mov    $0x401700,%esi
  40330d:	48 89 c7             	mov    %rax,%rdi
  403310:	e8 cb e3 ff ff       	callq  4016e0 <_ZNSolsEPFRSoS_E@plt>
  403315:	48 8b 85 28 fd ff ff 	mov    -0x2d8(%rbp),%rax
  40331c:	48 89 c7             	mov    %rax,%rdi
  40331f:	e8 4c e1 ff ff       	callq  401470 <cudaFree@plt>
  403324:	b8 00 00 00 00       	mov    $0x0,%eax
  403329:	48 8b 5d d8          	mov    -0x28(%rbp),%rbx
  40332d:	64 48 33 1c 25 28 00 	xor    %fs:0x28,%rbx
  403334:	00 00 
  403336:	74 05                	je     40333d <main+0x549>
  403338:	e8 83 e3 ff ff       	callq  4016c0 <__stack_chk_fail@plt>
  40333d:	48 81 c4 08 03 00 00 	add    $0x308,%rsp
  403344:	5b                   	pop    %rbx
  403345:	41 5c                	pop    %r12
  403347:	41 5d                	pop    %r13
  403349:	5d                   	pop    %rbp
  40334a:	c3                   	retq   

000000000040334b <_ZL22____nv_dummy_param_refPv>:
  40334b:	55                   	push   %rbp
  40334c:	48 89 e5             	mov    %rsp,%rbp
  40334f:	48 89 7d f8          	mov    %rdi,-0x8(%rbp)
  403353:	48 8b 45 f8          	mov    -0x8(%rbp),%rax
  403357:	48 89 05 02 60 20 00 	mov    %rax,0x206002(%rip)        # 609360 <_ZZL22____nv_dummy_param_refPvE5__ref>
  40335e:	5d                   	pop    %rbp
  40335f:	c3                   	retq   

0000000000403360 <_ZL26__cudaUnregisterBinaryUtilv>:
  403360:	55                   	push   %rbp
  403361:	48 89 e5             	mov    %rsp,%rbp
  403364:	bf 58 93 60 00       	mov    $0x609358,%edi
  403369:	e8 dd ff ff ff       	callq  40334b <_ZL22____nv_dummy_param_refPv>
  40336e:	48 8b 05 e3 5f 20 00 	mov    0x205fe3(%rip),%rax        # 609358 <_ZL20__cudaFatCubinHandle>
  403375:	48 89 c7             	mov    %rax,%rdi
  403378:	e8 43 e2 ff ff       	callq  4015c0 <__cudaUnregisterFatBinary@plt>
  40337d:	5d                   	pop    %rbp
  40337e:	c3                   	retq   

000000000040337f <_ZL32__nv_init_managed_rt_with_modulePPv>:
  40337f:	55                   	push   %rbp
  403380:	48 89 e5             	mov    %rsp,%rbp
  403383:	48 83 ec 10          	sub    $0x10,%rsp
  403387:	48 89 7d f8          	mov    %rdi,-0x8(%rbp)
  40338b:	48 8b 45 f8          	mov    -0x8(%rbp),%rax
  40338f:	48 89 c7             	mov    %rax,%rdi
  403392:	e8 b9 e2 ff ff       	callq  401650 <__cudaInitModule@plt>
  403397:	c9                   	leaveq 
  403398:	c3                   	retq   

0000000000403399 <_Z28__device_stub__Z8make_pktPiiPii>:
  403399:	55                   	push   %rbp
  40339a:	48 89 e5             	mov    %rsp,%rbp
  40339d:	48 83 ec 10          	sub    $0x10,%rsp
  4033a1:	48 89 7d f8          	mov    %rdi,-0x8(%rbp)
  4033a5:	89 75 f4             	mov    %esi,-0xc(%rbp)
  4033a8:	48 8d 45 f8          	lea    -0x8(%rbp),%rax
  4033ac:	ba 00 00 00 00       	mov    $0x0,%edx
  4033b1:	be 08 00 00 00       	mov    $0x8,%esi
  4033b6:	48 89 c7             	mov    %rax,%rdi
  4033b9:	e8 d2 e1 ff ff       	callq  401590 <cudaSetupArgument@plt>
  4033be:	85 c0                	test   %eax,%eax
  4033c0:	0f 95 c0             	setne  %al
  4033c3:	84 c0                	test   %al,%al
  4033c5:	74 02                	je     4033c9 <_Z28__device_stub__Z8make_pktPiiPii+0x30>
  4033c7:	eb 36                	jmp    4033ff <_Z28__device_stub__Z8make_pktPiiPii+0x66>
  4033c9:	48 8d 45 f4          	lea    -0xc(%rbp),%rax
  4033cd:	ba 08 00 00 00       	mov    $0x8,%edx
  4033d2:	be 04 00 00 00       	mov    $0x4,%esi
  4033d7:	48 89 c7             	mov    %rax,%rdi
  4033da:	e8 b1 e1 ff ff       	callq  401590 <cudaSetupArgument@plt>
  4033df:	85 c0                	test   %eax,%eax
  4033e1:	0f 95 c0             	setne  %al
  4033e4:	84 c0                	test   %al,%al
  4033e6:	74 02                	je     4033ea <_Z28__device_stub__Z8make_pktPiiPii+0x51>
  4033e8:	eb 15                	jmp    4033ff <_Z28__device_stub__Z8make_pktPiiPii+0x66>
  4033ea:	48 c7 05 73 5f 20 00 	movq   $0x403401,0x205f73(%rip)        # 609368 <_ZZ28__device_stub__Z8make_pktPiiPiiE3__f>
  4033f1:	01 34 40 00 
  4033f5:	bf 01 34 40 00       	mov    $0x403401,%edi
  4033fa:	e8 2e 02 00 00       	callq  40362d <_Z10cudaLaunchIcE9cudaErrorPT_>
  4033ff:	c9                   	leaveq 
  403400:	c3                   	retq   

0000000000403401 <_Z8make_pktPii>:
  403401:	55                   	push   %rbp
  403402:	48 89 e5             	mov    %rsp,%rbp
  403405:	48 83 ec 10          	sub    $0x10,%rsp
  403409:	48 89 7d f8          	mov    %rdi,-0x8(%rbp)
  40340d:	89 75 f4             	mov    %esi,-0xc(%rbp)
  403410:	8b 55 f4             	mov    -0xc(%rbp),%edx
  403413:	48 8b 45 f8          	mov    -0x8(%rbp),%rax
  403417:	89 d6                	mov    %edx,%esi
  403419:	48 89 c7             	mov    %rax,%rdi
  40341c:	e8 78 ff ff ff       	callq  403399 <_Z28__device_stub__Z8make_pktPiiPii>
  403421:	c9                   	leaveq 
  403422:	c3                   	retq   

0000000000403423 <_Z39__device_stub__Z13doorbell_testPvS_jPiiPvS_jPii>:
  403423:	55                   	push   %rbp
  403424:	48 89 e5             	mov    %rsp,%rbp
  403427:	48 83 ec 20          	sub    $0x20,%rsp
  40342b:	48 89 7d f8          	mov    %rdi,-0x8(%rbp)
  40342f:	48 89 75 f0          	mov    %rsi,-0x10(%rbp)
  403433:	89 55 ec             	mov    %edx,-0x14(%rbp)
  403436:	48 89 4d e0          	mov    %rcx,-0x20(%rbp)
  40343a:	44 89 45 e8          	mov    %r8d,-0x18(%rbp)
  40343e:	48 8d 45 f8          	lea    -0x8(%rbp),%rax
  403442:	ba 00 00 00 00       	mov    $0x0,%edx
  403447:	be 08 00 00 00       	mov    $0x8,%esi
  40344c:	48 89 c7             	mov    %rax,%rdi
  40344f:	e8 3c e1 ff ff       	callq  401590 <cudaSetupArgument@plt>
  403454:	85 c0                	test   %eax,%eax
  403456:	0f 95 c0             	setne  %al
  403459:	84 c0                	test   %al,%al
  40345b:	74 05                	je     403462 <_Z39__device_stub__Z13doorbell_testPvS_jPiiPvS_jPii+0x3f>
  40345d:	e9 99 00 00 00       	jmpq   4034fb <_Z39__device_stub__Z13doorbell_testPvS_jPiiPvS_jPii+0xd8>
  403462:	48 8d 45 f0          	lea    -0x10(%rbp),%rax
  403466:	ba 08 00 00 00       	mov    $0x8,%edx
  40346b:	be 08 00 00 00       	mov    $0x8,%esi
  403470:	48 89 c7             	mov    %rax,%rdi
  403473:	e8 18 e1 ff ff       	callq  401590 <cudaSetupArgument@plt>
  403478:	85 c0                	test   %eax,%eax
  40347a:	0f 95 c0             	setne  %al
  40347d:	84 c0                	test   %al,%al
  40347f:	74 02                	je     403483 <_Z39__device_stub__Z13doorbell_testPvS_jPiiPvS_jPii+0x60>
  403481:	eb 78                	jmp    4034fb <_Z39__device_stub__Z13doorbell_testPvS_jPiiPvS_jPii+0xd8>
  403483:	48 8d 45 ec          	lea    -0x14(%rbp),%rax
  403487:	ba 10 00 00 00       	mov    $0x10,%edx
  40348c:	be 04 00 00 00       	mov    $0x4,%esi
  403491:	48 89 c7             	mov    %rax,%rdi
  403494:	e8 f7 e0 ff ff       	callq  401590 <cudaSetupArgument@plt>
  403499:	85 c0                	test   %eax,%eax
  40349b:	0f 95 c0             	setne  %al
  40349e:	84 c0                	test   %al,%al
  4034a0:	74 02                	je     4034a4 <_Z39__device_stub__Z13doorbell_testPvS_jPiiPvS_jPii+0x81>
  4034a2:	eb 57                	jmp    4034fb <_Z39__device_stub__Z13doorbell_testPvS_jPiiPvS_jPii+0xd8>
  4034a4:	48 8d 45 e0          	lea    -0x20(%rbp),%rax
  4034a8:	ba 18 00 00 00       	mov    $0x18,%edx
  4034ad:	be 08 00 00 00       	mov    $0x8,%esi
  4034b2:	48 89 c7             	mov    %rax,%rdi
  4034b5:	e8 d6 e0 ff ff       	callq  401590 <cudaSetupArgument@plt>
  4034ba:	85 c0                	test   %eax,%eax
  4034bc:	0f 95 c0             	setne  %al
  4034bf:	84 c0                	test   %al,%al
  4034c1:	74 02                	je     4034c5 <_Z39__device_stub__Z13doorbell_testPvS_jPiiPvS_jPii+0xa2>
  4034c3:	eb 36                	jmp    4034fb <_Z39__device_stub__Z13doorbell_testPvS_jPiiPvS_jPii+0xd8>
  4034c5:	48 8d 45 e8          	lea    -0x18(%rbp),%rax
  4034c9:	ba 20 00 00 00       	mov    $0x20,%edx
  4034ce:	be 04 00 00 00       	mov    $0x4,%esi
  4034d3:	48 89 c7             	mov    %rax,%rdi
  4034d6:	e8 b5 e0 ff ff       	callq  401590 <cudaSetupArgument@plt>
  4034db:	85 c0                	test   %eax,%eax
  4034dd:	0f 95 c0             	setne  %al
  4034e0:	84 c0                	test   %al,%al
  4034e2:	74 02                	je     4034e6 <_Z39__device_stub__Z13doorbell_testPvS_jPiiPvS_jPii+0xc3>
  4034e4:	eb 15                	jmp    4034fb <_Z39__device_stub__Z13doorbell_testPvS_jPiiPvS_jPii+0xd8>
  4034e6:	48 c7 05 7f 5e 20 00 	movq   $0x4034fd,0x205e7f(%rip)        # 609370 <_ZZ39__device_stub__Z13doorbell_testPvS_jPiiPvS_jPiiE3__f>
  4034ed:	fd 34 40 00 
  4034f1:	bf fd 34 40 00       	mov    $0x4034fd,%edi
  4034f6:	e8 32 01 00 00       	callq  40362d <_Z10cudaLaunchIcE9cudaErrorPT_>
  4034fb:	c9                   	leaveq 
  4034fc:	c3                   	retq   

00000000004034fd <_Z13doorbell_testPvS_jPii>:
  4034fd:	55                   	push   %rbp
  4034fe:	48 89 e5             	mov    %rsp,%rbp
  403501:	48 83 ec 20          	sub    $0x20,%rsp
  403505:	48 89 7d f8          	mov    %rdi,-0x8(%rbp)
  403509:	48 89 75 f0          	mov    %rsi,-0x10(%rbp)
  40350d:	89 55 ec             	mov    %edx,-0x14(%rbp)
  403510:	48 89 4d e0          	mov    %rcx,-0x20(%rbp)
  403514:	44 89 45 e8          	mov    %r8d,-0x18(%rbp)
  403518:	8b 7d e8             	mov    -0x18(%rbp),%edi
  40351b:	48 8b 4d e0          	mov    -0x20(%rbp),%rcx
  40351f:	8b 55 ec             	mov    -0x14(%rbp),%edx
  403522:	48 8b 75 f0          	mov    -0x10(%rbp),%rsi
  403526:	48 8b 45 f8          	mov    -0x8(%rbp),%rax
  40352a:	41 89 f8             	mov    %edi,%r8d
  40352d:	48 89 c7             	mov    %rax,%rdi
  403530:	e8 ee fe ff ff       	callq  403423 <_Z39__device_stub__Z13doorbell_testPvS_jPiiPvS_jPii>
  403535:	c9                   	leaveq 
  403536:	c3                   	retq   

0000000000403537 <_ZL31__nv_cudaEntityRegisterCallbackPPv>:
  403537:	55                   	push   %rbp
  403538:	48 89 e5             	mov    %rsp,%rbp
  40353b:	48 83 ec 30          	sub    $0x30,%rsp
  40353f:	48 89 7d f8          	mov    %rdi,-0x8(%rbp)
  403543:	48 8b 45 f8          	mov    -0x8(%rbp),%rax
  403547:	48 89 05 2a 5e 20 00 	mov    %rax,0x205e2a(%rip)        # 609378 <_ZZL31__nv_cudaEntityRegisterCallbackPPvE5__ref>
  40354e:	48 8b 45 f8          	mov    -0x8(%rbp),%rax
  403552:	48 89 c7             	mov    %rax,%rdi
  403555:	e8 88 e3 ff ff       	callq  4018e2 <_ZL37__nv_save_fatbinhandle_for_managed_rtPPv>
  40355a:	48 8b 45 f8          	mov    -0x8(%rbp),%rax
  40355e:	48 c7 44 24 18 00 00 	movq   $0x0,0x18(%rsp)
  403565:	00 00 
  403567:	48 c7 44 24 10 00 00 	movq   $0x0,0x10(%rsp)
  40356e:	00 00 
  403570:	48 c7 44 24 08 00 00 	movq   $0x0,0x8(%rsp)
  403577:	00 00 
  403579:	48 c7 04 24 00 00 00 	movq   $0x0,(%rsp)
  403580:	00 
  403581:	41 b9 00 00 00 00    	mov    $0x0,%r9d
  403587:	41 b8 ff ff ff ff    	mov    $0xffffffff,%r8d
  40358d:	b9 f8 42 40 00       	mov    $0x4042f8,%ecx
  403592:	ba f8 42 40 00       	mov    $0x4042f8,%edx
  403597:	be fd 34 40 00       	mov    $0x4034fd,%esi
  40359c:	48 89 c7             	mov    %rax,%rdi
  40359f:	e8 3c df ff ff       	callq  4014e0 <__cudaRegisterFunction@plt>
  4035a4:	48 8b 45 f8          	mov    -0x8(%rbp),%rax
  4035a8:	48 c7 44 24 18 00 00 	movq   $0x0,0x18(%rsp)
  4035af:	00 00 
  4035b1:	48 c7 44 24 10 00 00 	movq   $0x0,0x10(%rsp)
  4035b8:	00 00 
  4035ba:	48 c7 44 24 08 00 00 	movq   $0x0,0x8(%rsp)
  4035c1:	00 00 
  4035c3:	48 c7 04 24 00 00 00 	movq   $0x0,(%rsp)
  4035ca:	00 
  4035cb:	41 b9 00 00 00 00    	mov    $0x0,%r9d
  4035d1:	41 b8 ff ff ff ff    	mov    $0xffffffff,%r8d
  4035d7:	b9 12 43 40 00       	mov    $0x404312,%ecx
  4035dc:	ba 12 43 40 00       	mov    $0x404312,%edx
  4035e1:	be 01 34 40 00       	mov    $0x403401,%esi
  4035e6:	48 89 c7             	mov    %rax,%rdi
  4035e9:	e8 f2 de ff ff       	callq  4014e0 <__cudaRegisterFunction@plt>
  4035ee:	c9                   	leaveq 
  4035ef:	c3                   	retq   

00000000004035f0 <_ZL82__sti____cudaRegisterAll_45_tmpxft_000046fa_00000000_9_packet_man_cpp1_ii_c60f757ev>:
  4035f0:	55                   	push   %rbp
  4035f1:	48 89 e5             	mov    %rsp,%rbp
  4035f4:	48 83 ec 10          	sub    $0x10,%rsp
  4035f8:	bf 80 7b 40 00       	mov    $0x407b80,%edi
  4035fd:	e8 7e e0 ff ff       	callq  401680 <__cudaRegisterFatBinary@plt>
  403602:	48 89 05 4f 5d 20 00 	mov    %rax,0x205d4f(%rip)        # 609358 <_ZL20__cudaFatCubinHandle>
  403609:	48 c7 45 f8 37 35 40 	movq   $0x403537,-0x8(%rbp)
  403610:	00 
  403611:	48 8b 15 40 5d 20 00 	mov    0x205d40(%rip),%rdx        # 609358 <_ZL20__cudaFatCubinHandle>
  403618:	48 8b 45 f8          	mov    -0x8(%rbp),%rax
  40361c:	48 89 d7             	mov    %rdx,%rdi
  40361f:	ff d0                	callq  *%rax
  403621:	bf 60 33 40 00       	mov    $0x403360,%edi
  403626:	e8 75 06 00 00       	callq  403ca0 <atexit>
  40362b:	c9                   	leaveq 
  40362c:	c3                   	retq   

000000000040362d <_Z10cudaLaunchIcE9cudaErrorPT_>:
  40362d:	55                   	push   %rbp
  40362e:	48 89 e5             	mov    %rsp,%rbp
  403631:	48 83 ec 10          	sub    $0x10,%rsp
  403635:	48 89 7d f8          	mov    %rdi,-0x8(%rbp)
  403639:	48 8b 45 f8          	mov    -0x8(%rbp),%rax
  40363d:	48 89 c7             	mov    %rax,%rdi
  403640:	e8 ab df ff ff       	callq  4015f0 <cudaLaunch@plt>
  403645:	c9                   	leaveq 
  403646:	c3                   	retq   

0000000000403647 <_Z41__static_initialization_and_destruction_0ii>:
  403647:	55                   	push   %rbp
  403648:	48 89 e5             	mov    %rsp,%rbp
  40364b:	48 83 ec 10          	sub    $0x10,%rsp
  40364f:	89 7d fc             	mov    %edi,-0x4(%rbp)
  403652:	89 75 f8             	mov    %esi,-0x8(%rbp)
  403655:	83 7d fc 01          	cmpl   $0x1,-0x4(%rbp)
  403659:	75 27                	jne    403682 <_Z41__static_initialization_and_destruction_0ii+0x3b>
  40365b:	81 7d f8 ff ff 00 00 	cmpl   $0xffff,-0x8(%rbp)
  403662:	75 1e                	jne    403682 <_Z41__static_initialization_and_destruction_0ii+0x3b>
  403664:	bf 50 93 60 00       	mov    $0x609350,%edi
  403669:	e8 a2 de ff ff       	callq  401510 <_ZNSt8ios_base4InitC1Ev@plt>
  40366e:	ba f0 91 60 00       	mov    $0x6091f0,%edx
  403673:	be 50 93 60 00       	mov    $0x609350,%esi
  403678:	bf 60 15 40 00       	mov    $0x401560,%edi
  40367d:	e8 be de ff ff       	callq  401540 <__cxa_atexit@plt>
  403682:	c9                   	leaveq 
  403683:	c3                   	retq   

0000000000403684 <_GLOBAL__sub_I__Z15h_DumpARPPacketP6arphdr>:
  403684:	55                   	push   %rbp
  403685:	48 89 e5             	mov    %rsp,%rbp
  403688:	be ff ff 00 00       	mov    $0xffff,%esi
  40368d:	bf 01 00 00 00       	mov    $0x1,%edi
  403692:	e8 b0 ff ff ff       	callq  403647 <_Z41__static_initialization_and_destruction_0ii>
  403697:	5d                   	pop    %rbp
  403698:	c3                   	retq   
  403699:	90                   	nop

000000000040369a <_ZN4dim3C1Ejjj>:
  40369a:	55                   	push   %rbp
  40369b:	48 89 e5             	mov    %rsp,%rbp
  40369e:	48 89 7d f8          	mov    %rdi,-0x8(%rbp)
  4036a2:	89 75 f4             	mov    %esi,-0xc(%rbp)
  4036a5:	89 55 f0             	mov    %edx,-0x10(%rbp)
  4036a8:	89 4d ec             	mov    %ecx,-0x14(%rbp)
  4036ab:	48 8b 45 f8          	mov    -0x8(%rbp),%rax
  4036af:	8b 55 f4             	mov    -0xc(%rbp),%edx
  4036b2:	89 10                	mov    %edx,(%rax)
  4036b4:	48 8b 45 f8          	mov    -0x8(%rbp),%rax
  4036b8:	8b 55 f0             	mov    -0x10(%rbp),%edx
  4036bb:	89 50 04             	mov    %edx,0x4(%rax)
  4036be:	48 8b 45 f8          	mov    -0x8(%rbp),%rax
  4036c2:	8b 55 ec             	mov    -0x14(%rbp),%edx
  4036c5:	89 50 08             	mov    %edx,0x8(%rax)
  4036c8:	5d                   	pop    %rbp
  4036c9:	c3                   	retq   

00000000004036ca <_ZStanSt13_Ios_FmtflagsS_>:
  4036ca:	55                   	push   %rbp
  4036cb:	48 89 e5             	mov    %rsp,%rbp
  4036ce:	89 7d fc             	mov    %edi,-0x4(%rbp)
  4036d1:	89 75 f8             	mov    %esi,-0x8(%rbp)
  4036d4:	8b 45 f8             	mov    -0x8(%rbp),%eax
  4036d7:	8b 55 fc             	mov    -0x4(%rbp),%edx
  4036da:	21 d0                	and    %edx,%eax
  4036dc:	5d                   	pop    %rbp
  4036dd:	c3                   	retq   

00000000004036de <_ZStorSt13_Ios_FmtflagsS_>:
  4036de:	55                   	push   %rbp
  4036df:	48 89 e5             	mov    %rsp,%rbp
  4036e2:	89 7d fc             	mov    %edi,-0x4(%rbp)
  4036e5:	89 75 f8             	mov    %esi,-0x8(%rbp)
  4036e8:	8b 45 f8             	mov    -0x8(%rbp),%eax
  4036eb:	8b 55 fc             	mov    -0x4(%rbp),%edx
  4036ee:	09 d0                	or     %edx,%eax
  4036f0:	5d                   	pop    %rbp
  4036f1:	c3                   	retq   

00000000004036f2 <_ZStcoSt13_Ios_Fmtflags>:
  4036f2:	55                   	push   %rbp
  4036f3:	48 89 e5             	mov    %rsp,%rbp
  4036f6:	89 7d fc             	mov    %edi,-0x4(%rbp)
  4036f9:	8b 45 fc             	mov    -0x4(%rbp),%eax
  4036fc:	f7 d0                	not    %eax
  4036fe:	5d                   	pop    %rbp
  4036ff:	c3                   	retq   

0000000000403700 <_ZStoRRSt13_Ios_FmtflagsS_>:
  403700:	55                   	push   %rbp
  403701:	48 89 e5             	mov    %rsp,%rbp
  403704:	48 83 ec 10          	sub    $0x10,%rsp
  403708:	48 89 7d f8          	mov    %rdi,-0x8(%rbp)
  40370c:	89 75 f4             	mov    %esi,-0xc(%rbp)
  40370f:	48 8b 45 f8          	mov    -0x8(%rbp),%rax
  403713:	8b 00                	mov    (%rax),%eax
  403715:	8b 55 f4             	mov    -0xc(%rbp),%edx
  403718:	89 d6                	mov    %edx,%esi
  40371a:	89 c7                	mov    %eax,%edi
  40371c:	e8 bd ff ff ff       	callq  4036de <_ZStorSt13_Ios_FmtflagsS_>
  403721:	48 8b 55 f8          	mov    -0x8(%rbp),%rdx
  403725:	89 02                	mov    %eax,(%rdx)
  403727:	48 8b 45 f8          	mov    -0x8(%rbp),%rax
  40372b:	c9                   	leaveq 
  40372c:	c3                   	retq   

000000000040372d <_ZStaNRSt13_Ios_FmtflagsS_>:
  40372d:	55                   	push   %rbp
  40372e:	48 89 e5             	mov    %rsp,%rbp
  403731:	48 83 ec 10          	sub    $0x10,%rsp
  403735:	48 89 7d f8          	mov    %rdi,-0x8(%rbp)
  403739:	89 75 f4             	mov    %esi,-0xc(%rbp)
  40373c:	48 8b 45 f8          	mov    -0x8(%rbp),%rax
  403740:	8b 00                	mov    (%rax),%eax
  403742:	8b 55 f4             	mov    -0xc(%rbp),%edx
  403745:	89 d6                	mov    %edx,%esi
  403747:	89 c7                	mov    %eax,%edi
  403749:	e8 7c ff ff ff       	callq  4036ca <_ZStanSt13_Ios_FmtflagsS_>
  40374e:	48 8b 55 f8          	mov    -0x8(%rbp),%rdx
  403752:	89 02                	mov    %eax,(%rdx)
  403754:	48 8b 45 f8          	mov    -0x8(%rbp),%rax
  403758:	c9                   	leaveq 
  403759:	c3                   	retq   

000000000040375a <_ZNSt8ios_base4setfESt13_Ios_FmtflagsS0_>:
  40375a:	55                   	push   %rbp
  40375b:	48 89 e5             	mov    %rsp,%rbp
  40375e:	48 83 ec 20          	sub    $0x20,%rsp
  403762:	48 89 7d e8          	mov    %rdi,-0x18(%rbp)
  403766:	89 75 e4             	mov    %esi,-0x1c(%rbp)
  403769:	89 55 e0             	mov    %edx,-0x20(%rbp)
  40376c:	48 8b 45 e8          	mov    -0x18(%rbp),%rax
  403770:	8b 40 18             	mov    0x18(%rax),%eax
  403773:	89 45 fc             	mov    %eax,-0x4(%rbp)
  403776:	8b 45 e0             	mov    -0x20(%rbp),%eax
  403779:	89 c7                	mov    %eax,%edi
  40377b:	e8 72 ff ff ff       	callq  4036f2 <_ZStcoSt13_Ios_Fmtflags>
  403780:	48 8b 55 e8          	mov    -0x18(%rbp),%rdx
  403784:	48 83 c2 18          	add    $0x18,%rdx
  403788:	89 c6                	mov    %eax,%esi
  40378a:	48 89 d7             	mov    %rdx,%rdi
  40378d:	e8 9b ff ff ff       	callq  40372d <_ZStaNRSt13_Ios_FmtflagsS_>
  403792:	8b 55 e0             	mov    -0x20(%rbp),%edx
  403795:	8b 45 e4             	mov    -0x1c(%rbp),%eax
  403798:	89 d6                	mov    %edx,%esi
  40379a:	89 c7                	mov    %eax,%edi
  40379c:	e8 29 ff ff ff       	callq  4036ca <_ZStanSt13_Ios_FmtflagsS_>
  4037a1:	48 8b 55 e8          	mov    -0x18(%rbp),%rdx
  4037a5:	48 83 c2 18          	add    $0x18,%rdx
  4037a9:	89 c6                	mov    %eax,%esi
  4037ab:	48 89 d7             	mov    %rdx,%rdi
  4037ae:	e8 4d ff ff ff       	callq  403700 <_ZStoRRSt13_Ios_FmtflagsS_>
  4037b3:	8b 45 fc             	mov    -0x4(%rbp),%eax
  4037b6:	c9                   	leaveq 
  4037b7:	c3                   	retq   

00000000004037b8 <_ZSt3decRSt8ios_base>:
  4037b8:	55                   	push   %rbp
  4037b9:	48 89 e5             	mov    %rsp,%rbp
  4037bc:	48 83 ec 10          	sub    $0x10,%rsp
  4037c0:	48 89 7d f8          	mov    %rdi,-0x8(%rbp)
  4037c4:	48 8b 45 f8          	mov    -0x8(%rbp),%rax
  4037c8:	ba 4a 00 00 00       	mov    $0x4a,%edx
  4037cd:	be 02 00 00 00       	mov    $0x2,%esi
  4037d2:	48 89 c7             	mov    %rax,%rdi
  4037d5:	e8 80 ff ff ff       	callq  40375a <_ZNSt8ios_base4setfESt13_Ios_FmtflagsS0_>
  4037da:	48 8b 45 f8          	mov    -0x8(%rbp),%rax
  4037de:	c9                   	leaveq 
  4037df:	c3                   	retq   

00000000004037e0 <_ZSt3hexRSt8ios_base>:
  4037e0:	55                   	push   %rbp
  4037e1:	48 89 e5             	mov    %rsp,%rbp
  4037e4:	48 83 ec 10          	sub    $0x10,%rsp
  4037e8:	48 89 7d f8          	mov    %rdi,-0x8(%rbp)
  4037ec:	48 8b 45 f8          	mov    -0x8(%rbp),%rax
  4037f0:	ba 4a 00 00 00       	mov    $0x4a,%edx
  4037f5:	be 08 00 00 00       	mov    $0x8,%esi
  4037fa:	48 89 c7             	mov    %rax,%rdi
  4037fd:	e8 58 ff ff ff       	callq  40375a <_ZNSt8ios_base4setfESt13_Ios_FmtflagsS0_>
  403802:	48 8b 45 f8          	mov    -0x8(%rbp),%rax
  403806:	c9                   	leaveq 
  403807:	c3                   	retq   
  403808:	0f 1f 84 00 00 00 00 	nopl   0x0(%rax,%rax,1)
  40380f:	00 

0000000000403810 <InitARPTable>:
  403810:	48 83 ec 08          	sub    $0x8,%rsp
  403814:	31 f6                	xor    %esi,%esi
  403816:	bf 90 93 60 00       	mov    $0x609390,%edi
  40381b:	31 c0                	xor    %eax,%eax
  40381d:	48 c7 05 58 5b 20 00 	movq   $0x0,0x205b58(%rip)        # 609380 <g_arpm>
  403824:	00 00 00 00 
  403828:	48 c7 05 55 5b 20 00 	movq   $0x609380,0x205b55(%rip)        # 609388 <g_arpm+0x8>
  40382f:	80 93 60 00 
  403833:	e8 18 dd ff ff       	callq  401550 <pthread_mutex_init@plt>
  403838:	31 c0                	xor    %eax,%eax
  40383a:	48 83 c4 08          	add    $0x8,%rsp
  40383e:	c3                   	retq   
  40383f:	90                   	nop

0000000000403840 <GetHWaddr>:
  403840:	31 c0                	xor    %eax,%eax
  403842:	c3                   	retq   
  403843:	66 66 66 66 2e 0f 1f 	data32 data32 data32 nopw %cs:0x0(%rax,%rax,1)
  40384a:	84 00 00 00 00 00 

0000000000403850 <GetDestinationHWaddr>:
  403850:	31 c0                	xor    %eax,%eax
  403852:	c3                   	retq   
  403853:	66 66 66 66 2e 0f 1f 	data32 data32 data32 nopw %cs:0x0(%rax,%rax,1)
  40385a:	84 00 00 00 00 00 

0000000000403860 <RegisterARPEntry>:
  403860:	31 c0                	xor    %eax,%eax
  403862:	c3                   	retq   
  403863:	66 66 66 66 2e 0f 1f 	data32 data32 data32 nopw %cs:0x0(%rax,%rax,1)
  40386a:	84 00 00 00 00 00 

0000000000403870 <RequestARP>:
  403870:	41 54                	push   %r12
  403872:	41 89 d4             	mov    %edx,%r12d
  403875:	55                   	push   %rbp
  403876:	89 f5                	mov    %esi,%ebp
  403878:	53                   	push   %rbx
  403879:	89 fb                	mov    %edi,%ebx
  40387b:	bf 90 93 60 00       	mov    $0x609390,%edi
  403880:	48 83 ec 20          	sub    $0x20,%rsp
  403884:	64 48 8b 04 25 28 00 	mov    %fs:0x28,%rax
  40388b:	00 00 
  40388d:	48 89 44 24 18       	mov    %rax,0x18(%rsp)
  403892:	31 c0                	xor    %eax,%eax
  403894:	e8 97 de ff ff       	callq  401730 <pthread_mutex_lock@plt>
  403899:	48 8b 05 e0 5a 20 00 	mov    0x205ae0(%rip),%rax        # 609380 <g_arpm>
  4038a0:	48 85 c0             	test   %rax,%rax
  4038a3:	75 14                	jne    4038b9 <RequestARP+0x49>
  4038a5:	eb 29                	jmp    4038d0 <RequestARP+0x60>
  4038a7:	66 0f 1f 84 00 00 00 	nopw   0x0(%rax,%rax,1)
  4038ae:	00 00 
  4038b0:	48 8b 40 10          	mov    0x10(%rax),%rax
  4038b4:	48 85 c0             	test   %rax,%rax
  4038b7:	74 17                	je     4038d0 <RequestARP+0x60>
  4038b9:	39 18                	cmp    %ebx,(%rax)
  4038bb:	75 f3                	jne    4038b0 <RequestARP+0x40>
  4038bd:	bf 90 93 60 00       	mov    $0x609390,%edi
  4038c2:	31 c0                	xor    %eax,%eax
  4038c4:	e8 a7 de ff ff       	callq  401770 <pthread_mutex_unlock@plt>
  4038c9:	e9 e8 00 00 00       	jmpq   4039b6 <RequestARP+0x146>
  4038ce:	66 90                	xchg   %ax,%ax
  4038d0:	be 20 00 00 00       	mov    $0x20,%esi
  4038d5:	bf 01 00 00 00       	mov    $0x1,%edi
  4038da:	e8 f1 dd ff ff       	callq  4016d0 <calloc@plt>
  4038df:	48 8b 15 a2 5a 20 00 	mov    0x205aa2(%rip),%rdx        # 609388 <g_arpm+0x8>
  4038e6:	89 68 04             	mov    %ebp,0x4(%rax)
  4038e9:	bf 90 93 60 00       	mov    $0x609390,%edi
  4038ee:	89 18                	mov    %ebx,(%rax)
  4038f0:	44 89 60 08          	mov    %r12d,0x8(%rax)
  4038f4:	48 c7 40 10 00 00 00 	movq   $0x0,0x10(%rax)
  4038fb:	00 
  4038fc:	48 89 50 18          	mov    %rdx,0x18(%rax)
  403900:	48 89 02             	mov    %rax,(%rdx)
  403903:	48 83 c0 10          	add    $0x10,%rax
  403907:	48 89 05 7a 5a 20 00 	mov    %rax,0x205a7a(%rip)        # 609388 <g_arpm+0x8>
  40390e:	31 c0                	xor    %eax,%eax
  403910:	e8 5b de ff ff       	callq  401770 <pthread_mutex_unlock@plt>
  403915:	31 c9                	xor    %ecx,%ecx
  403917:	ba ff ff ff ff       	mov    $0xffffffff,%edx
  40391c:	89 ee                	mov    %ebp,%esi
  40391e:	66 89 54 24 04       	mov    %dx,0x4(%rsp)
  403923:	66 89 4c 24 14       	mov    %cx,0x14(%rsp)
  403928:	31 c0                	xor    %eax,%eax
  40392a:	b9 2e 00 00 00       	mov    $0x2e,%ecx
  40392f:	48 89 e2             	mov    %rsp,%rdx
  403932:	bf 06 08 00 00       	mov    $0x806,%edi
  403937:	c7 04 24 ff ff ff ff 	movl   $0xffffffff,(%rsp)
  40393e:	c7 44 24 10 00 00 00 	movl   $0x0,0x10(%rsp)
  403945:	00 
  403946:	e8 95 02 00 00       	callq  403be0 <EthernetOutput>
  40394b:	48 63 e8             	movslq %eax,%rbp
  40394e:	48 85 ed             	test   %rbp,%rbp
  403951:	74 63                	je     4039b6 <RequestARP+0x146>
  403953:	bf 01 00 00 00       	mov    $0x1,%edi
  403958:	31 c0                	xor    %eax,%eax
  40395a:	e8 61 db ff ff       	callq  4014c0 <htons@plt>
  40395f:	bf 00 08 00 00       	mov    $0x800,%edi
  403964:	66 89 45 00          	mov    %ax,0x0(%rbp)
  403968:	31 c0                	xor    %eax,%eax
  40396a:	e8 51 db ff ff       	callq  4014c0 <htons@plt>
  40396f:	bf 01 00 00 00       	mov    $0x1,%edi
  403974:	66 89 45 02          	mov    %ax,0x2(%rbp)
  403978:	c6 45 04 06          	movb   $0x6,0x4(%rbp)
  40397c:	c6 45 05 04          	movb   $0x4,0x5(%rbp)
  403980:	31 c0                	xor    %eax,%eax
  403982:	e8 39 db ff ff       	callq  4014c0 <htons@plt>
  403987:	0f b6 55 04          	movzbl 0x4(%rbp),%edx
  40398b:	48 8d 7d 12          	lea    0x12(%rbp),%rdi
  40398f:	48 8d 74 24 10       	lea    0x10(%rsp),%rsi
  403994:	66 89 45 06          	mov    %ax,0x6(%rbp)
  403998:	89 5d 18             	mov    %ebx,0x18(%rbp)
  40399b:	e8 e0 dd ff ff       	callq  401780 <memcpy@plt>
  4039a0:	31 c0                	xor    %eax,%eax
  4039a2:	48 c7 45 1c 00 00 00 	movq   $0x0,0x1c(%rbp)
  4039a9:	00 
  4039aa:	48 c7 45 24 00 00 00 	movq   $0x0,0x24(%rbp)
  4039b1:	00 
  4039b2:	66 89 45 2c          	mov    %ax,0x2c(%rbp)
  4039b6:	48 8b 44 24 18       	mov    0x18(%rsp),%rax
  4039bb:	64 48 33 04 25 28 00 	xor    %fs:0x28,%rax
  4039c2:	00 00 
  4039c4:	75 09                	jne    4039cf <RequestARP+0x15f>
  4039c6:	48 83 c4 20          	add    $0x20,%rsp
  4039ca:	5b                   	pop    %rbx
  4039cb:	5d                   	pop    %rbp
  4039cc:	41 5c                	pop    %r12
  4039ce:	c3                   	retq   
  4039cf:	e8 ec dc ff ff       	callq  4016c0 <__stack_chk_fail@plt>
  4039d4:	66 66 66 2e 0f 1f 84 	data32 data32 nopw %cs:0x0(%rax,%rax,1)
  4039db:	00 00 00 00 00 

00000000004039e0 <ProcessARPPacket>:
  4039e0:	b8 01 00 00 00       	mov    $0x1,%eax
  4039e5:	c3                   	retq   
  4039e6:	66 2e 0f 1f 84 00 00 	nopw   %cs:0x0(%rax,%rax,1)
  4039ed:	00 00 00 

00000000004039f0 <ARPTimer>:
  4039f0:	41 54                	push   %r12
  4039f2:	31 c0                	xor    %eax,%eax
  4039f4:	41 89 fc             	mov    %edi,%r12d
  4039f7:	bf 90 93 60 00       	mov    $0x609390,%edi
  4039fc:	55                   	push   %rbp
  4039fd:	bd 18 fc ff ff       	mov    $0xfffffc18,%ebp
  403a02:	53                   	push   %rbx
  403a03:	e8 28 dd ff ff       	callq  401730 <pthread_mutex_lock@plt>
  403a08:	48 8b 1d 71 59 20 00 	mov    0x205971(%rip),%rbx        # 609380 <g_arpm>
  403a0f:	48 85 db             	test   %rbx,%rbx
  403a12:	75 28                	jne    403a3c <ARPTimer+0x4c>
  403a14:	eb 4a                	jmp    403a60 <ARPTimer+0x70>
  403a16:	66 2e 0f 1f 84 00 00 	nopw   %cs:0x0(%rax,%rax,1)
  403a1d:	00 00 00 
  403a20:	48 89 50 18          	mov    %rdx,0x18(%rax)
  403a24:	48 8b 53 18          	mov    0x18(%rbx),%rdx
  403a28:	48 89 02             	mov    %rax,(%rdx)
  403a2b:	48 89 df             	mov    %rbx,%rdi
  403a2e:	e8 7d db ff ff       	callq  4015b0 <free@plt>
  403a33:	48 8b 5b 10          	mov    0x10(%rbx),%rbx
  403a37:	48 85 db             	test   %rbx,%rbx
  403a3a:	74 24                	je     403a60 <ARPTimer+0x70>
  403a3c:	89 e8                	mov    %ebp,%eax
  403a3e:	2b 43 08             	sub    0x8(%rbx),%eax
  403a41:	44 01 e0             	add    %r12d,%eax
  403a44:	85 c0                	test   %eax,%eax
  403a46:	7e eb                	jle    403a33 <ARPTimer+0x43>
  403a48:	48 8b 43 10          	mov    0x10(%rbx),%rax
  403a4c:	48 8b 53 18          	mov    0x18(%rbx),%rdx
  403a50:	48 85 c0             	test   %rax,%rax
  403a53:	75 cb                	jne    403a20 <ARPTimer+0x30>
  403a55:	48 89 15 2c 59 20 00 	mov    %rdx,0x20592c(%rip)        # 609388 <g_arpm+0x8>
  403a5c:	eb ca                	jmp    403a28 <ARPTimer+0x38>
  403a5e:	66 90                	xchg   %ax,%ax
  403a60:	5b                   	pop    %rbx
  403a61:	5d                   	pop    %rbp
  403a62:	41 5c                	pop    %r12
  403a64:	bf 90 93 60 00       	mov    $0x609390,%edi
  403a69:	31 c0                	xor    %eax,%eax
  403a6b:	e9 00 dd ff ff       	jmpq   401770 <pthread_mutex_unlock@plt>

0000000000403a70 <PrintARPTable>:
  403a70:	48 8b 0d 99 58 20 00 	mov    0x205899(%rip),%rcx        # 609310 <stderr@@GLIBC_2.2.5>
  403a77:	ba 52 00 00 00       	mov    $0x52,%edx
  403a7c:	be 01 00 00 00       	mov    $0x1,%esi
  403a81:	bf 50 43 40 00       	mov    $0x404350,%edi
  403a86:	e9 85 dc ff ff       	jmpq   401710 <fwrite@plt>
  403a8b:	0f 1f 44 00 00       	nopl   0x0(%rax,%rax,1)

0000000000403a90 <DumpARPPacket>:
  403a90:	41 56                	push   %r14
  403a92:	ba 0d 00 00 00       	mov    $0xd,%edx
  403a97:	be 01 00 00 00       	mov    $0x1,%esi
  403a9c:	41 55                	push   %r13
  403a9e:	41 54                	push   %r12
  403aa0:	55                   	push   %rbp
  403aa1:	53                   	push   %rbx
  403aa2:	48 89 fb             	mov    %rdi,%rbx
  403aa5:	bf 70 44 40 00       	mov    $0x404470,%edi
  403aaa:	48 83 ec 40          	sub    $0x40,%rsp
  403aae:	48 8b 0d 5b 58 20 00 	mov    0x20585b(%rip),%rcx        # 609310 <stderr@@GLIBC_2.2.5>
  403ab5:	e8 56 dc ff ff       	callq  401710 <fwrite@plt>
  403aba:	0f b7 7b 06          	movzwl 0x6(%rbx),%edi
  403abe:	31 c0                	xor    %eax,%eax
  403ac0:	e8 3b db ff ff       	callq  401600 <ntohs@plt>
  403ac5:	0f b7 7b 02          	movzwl 0x2(%rbx),%edi
  403ac9:	41 89 c6             	mov    %eax,%r14d
  403acc:	31 c0                	xor    %eax,%eax
  403ace:	44 0f b6 6b 05       	movzbl 0x5(%rbx),%r13d
  403ad3:	e8 28 db ff ff       	callq  401600 <ntohs@plt>
  403ad8:	0f b7 3b             	movzwl (%rbx),%edi
  403adb:	0f b6 6b 04          	movzbl 0x4(%rbx),%ebp
  403adf:	41 89 c4             	mov    %eax,%r12d
  403ae2:	31 c0                	xor    %eax,%eax
  403ae4:	e8 17 db ff ff       	callq  401600 <ntohs@plt>
  403ae9:	48 8b 3d 20 58 20 00 	mov    0x205820(%rip),%rdi        # 609310 <stderr@@GLIBC_2.2.5>
  403af0:	89 c1                	mov    %eax,%ecx
  403af2:	44 89 74 24 08       	mov    %r14d,0x8(%rsp)
  403af7:	44 89 2c 24          	mov    %r13d,(%rsp)
  403afb:	45 89 e1             	mov    %r12d,%r9d
  403afe:	41 89 e8             	mov    %ebp,%r8d
  403b01:	ba a8 43 40 00       	mov    $0x4043a8,%edx
  403b06:	be 01 00 00 00       	mov    $0x1,%esi
  403b0b:	31 c0                	xor    %eax,%eax
  403b0d:	e8 7e d9 ff ff       	callq  401490 <__fprintf_chk@plt>
  403b12:	0f b6 43 0d          	movzbl 0xd(%rbx),%eax
  403b16:	44 0f b6 4b 10       	movzbl 0x10(%rbx),%r9d
  403b1b:	ba f0 43 40 00       	mov    $0x4043f0,%edx
  403b20:	44 0f b6 43 0f       	movzbl 0xf(%rbx),%r8d
  403b25:	0f b6 4b 0e          	movzbl 0xe(%rbx),%ecx
  403b29:	be 01 00 00 00       	mov    $0x1,%esi
  403b2e:	48 8b 3d db 57 20 00 	mov    0x2057db(%rip),%rdi        # 609310 <stderr@@GLIBC_2.2.5>
  403b35:	89 44 24 30          	mov    %eax,0x30(%rsp)
  403b39:	0f b6 43 0c          	movzbl 0xc(%rbx),%eax
  403b3d:	89 44 24 28          	mov    %eax,0x28(%rsp)
  403b41:	0f b6 43 0b          	movzbl 0xb(%rbx),%eax
  403b45:	89 44 24 20          	mov    %eax,0x20(%rsp)
  403b49:	0f b6 43 0a          	movzbl 0xa(%rbx),%eax
  403b4d:	89 44 24 18          	mov    %eax,0x18(%rsp)
  403b51:	0f b6 43 09          	movzbl 0x9(%rbx),%eax
  403b55:	89 44 24 10          	mov    %eax,0x10(%rsp)
  403b59:	0f b6 43 08          	movzbl 0x8(%rbx),%eax
  403b5d:	89 44 24 08          	mov    %eax,0x8(%rsp)
  403b61:	0f b6 43 11          	movzbl 0x11(%rbx),%eax
  403b65:	89 04 24             	mov    %eax,(%rsp)
  403b68:	31 c0                	xor    %eax,%eax
  403b6a:	e8 21 d9 ff ff       	callq  401490 <__fprintf_chk@plt>
  403b6f:	0f b6 43 17          	movzbl 0x17(%rbx),%eax
  403b73:	44 0f b6 4b 1a       	movzbl 0x1a(%rbx),%r9d
  403b78:	ba 30 44 40 00       	mov    $0x404430,%edx
  403b7d:	44 0f b6 43 19       	movzbl 0x19(%rbx),%r8d
  403b82:	0f b6 4b 18          	movzbl 0x18(%rbx),%ecx
  403b86:	be 01 00 00 00       	mov    $0x1,%esi
  403b8b:	48 8b 3d 7e 57 20 00 	mov    0x20577e(%rip),%rdi        # 609310 <stderr@@GLIBC_2.2.5>
  403b92:	89 44 24 30          	mov    %eax,0x30(%rsp)
  403b96:	0f b6 43 16          	movzbl 0x16(%rbx),%eax
  403b9a:	89 44 24 28          	mov    %eax,0x28(%rsp)
  403b9e:	0f b6 43 15          	movzbl 0x15(%rbx),%eax
  403ba2:	89 44 24 20          	mov    %eax,0x20(%rsp)
  403ba6:	0f b6 43 14          	movzbl 0x14(%rbx),%eax
  403baa:	89 44 24 18          	mov    %eax,0x18(%rsp)
  403bae:	0f b6 43 13          	movzbl 0x13(%rbx),%eax
  403bb2:	89 44 24 10          	mov    %eax,0x10(%rsp)
  403bb6:	0f b6 43 12          	movzbl 0x12(%rbx),%eax
  403bba:	89 44 24 08          	mov    %eax,0x8(%rsp)
  403bbe:	0f b6 43 1b          	movzbl 0x1b(%rbx),%eax
  403bc2:	89 04 24             	mov    %eax,(%rsp)
  403bc5:	31 c0                	xor    %eax,%eax
  403bc7:	e8 c4 d8 ff ff       	callq  401490 <__fprintf_chk@plt>
  403bcc:	48 83 c4 40          	add    $0x40,%rsp
  403bd0:	5b                   	pop    %rbx
  403bd1:	5d                   	pop    %rbp
  403bd2:	41 5c                	pop    %r12
  403bd4:	41 5d                	pop    %r13
  403bd6:	41 5e                	pop    %r14
  403bd8:	c3                   	retq   
  403bd9:	0f 1f 80 00 00 00 00 	nopl   0x0(%rax)

0000000000403be0 <EthernetOutput>:
  403be0:	85 f6                	test   %esi,%esi
  403be2:	78 0c                	js     403bf0 <EthernetOutput+0x10>
  403be4:	31 c0                	xor    %eax,%eax
  403be6:	c3                   	retq   
  403be7:	66 0f 1f 84 00 00 00 	nopw   0x0(%rax,%rax,1)
  403bee:	00 00 
  403bf0:	48 83 ec 08          	sub    $0x8,%rsp
  403bf4:	48 8b 0d 15 57 20 00 	mov    0x205715(%rip),%rcx        # 609310 <stderr@@GLIBC_2.2.5>
  403bfb:	ba 12 00 00 00       	mov    $0x12,%edx
  403c00:	be 01 00 00 00       	mov    $0x1,%esi
  403c05:	bf 7e 44 40 00       	mov    $0x40447e,%edi
  403c0a:	e8 01 db ff ff       	callq  401710 <fwrite@plt>
  403c0f:	31 c0                	xor    %eax,%eax
  403c11:	48 83 c4 08          	add    $0x8,%rsp
  403c15:	c3                   	retq   
  403c16:	66 2e 0f 1f 84 00 00 	nopw   %cs:0x0(%rax,%rax,1)
  403c1d:	00 00 00 

0000000000403c20 <__libc_csu_init>:
  403c20:	41 57                	push   %r15
  403c22:	41 89 ff             	mov    %edi,%r15d
  403c25:	41 56                	push   %r14
  403c27:	49 89 f6             	mov    %rsi,%r14
  403c2a:	41 55                	push   %r13
  403c2c:	49 89 d5             	mov    %rdx,%r13
  403c2f:	41 54                	push   %r12
  403c31:	4c 8d 25 88 51 20 00 	lea    0x205188(%rip),%r12        # 608dc0 <__frame_dummy_init_array_entry>
  403c38:	55                   	push   %rbp
  403c39:	48 8d 2d 98 51 20 00 	lea    0x205198(%rip),%rbp        # 608dd8 <__init_array_end>
  403c40:	53                   	push   %rbx
  403c41:	4c 29 e5             	sub    %r12,%rbp
  403c44:	31 db                	xor    %ebx,%ebx
  403c46:	48 c1 fd 03          	sar    $0x3,%rbp
  403c4a:	48 83 ec 08          	sub    $0x8,%rsp
  403c4e:	e8 b5 d7 ff ff       	callq  401408 <_init>
  403c53:	48 85 ed             	test   %rbp,%rbp
  403c56:	74 1e                	je     403c76 <__libc_csu_init+0x56>
  403c58:	0f 1f 84 00 00 00 00 	nopl   0x0(%rax,%rax,1)
  403c5f:	00 
  403c60:	4c 89 ea             	mov    %r13,%rdx
  403c63:	4c 89 f6             	mov    %r14,%rsi
  403c66:	44 89 ff             	mov    %r15d,%edi
  403c69:	41 ff 14 dc          	callq  *(%r12,%rbx,8)
  403c6d:	48 83 c3 01          	add    $0x1,%rbx
  403c71:	48 39 eb             	cmp    %rbp,%rbx
  403c74:	75 ea                	jne    403c60 <__libc_csu_init+0x40>
  403c76:	48 83 c4 08          	add    $0x8,%rsp
  403c7a:	5b                   	pop    %rbx
  403c7b:	5d                   	pop    %rbp
  403c7c:	41 5c                	pop    %r12
  403c7e:	41 5d                	pop    %r13
  403c80:	41 5e                	pop    %r14
  403c82:	41 5f                	pop    %r15
  403c84:	c3                   	retq   
  403c85:	66 66 2e 0f 1f 84 00 	data32 nopw %cs:0x0(%rax,%rax,1)
  403c8c:	00 00 00 00 

0000000000403c90 <__libc_csu_fini>:
  403c90:	f3 c3                	repz retq 
  403c92:	66 2e 0f 1f 84 00 00 	nopw   %cs:0x0(%rax,%rax,1)
  403c99:	00 00 00 
  403c9c:	0f 1f 40 00          	nopl   0x0(%rax)

0000000000403ca0 <atexit>:
  403ca0:	48 8d 05 49 55 20 00 	lea    0x205549(%rip),%rax        # 6091f0 <__dso_handle>
  403ca7:	48 85 c0             	test   %rax,%rax
  403caa:	74 0a                	je     403cb6 <atexit+0x16>
  403cac:	48 8b 10             	mov    (%rax),%rdx
  403caf:	31 f6                	xor    %esi,%esi
  403cb1:	e9 8a d8 ff ff       	jmpq   401540 <__cxa_atexit@plt>
  403cb6:	31 d2                	xor    %edx,%edx
  403cb8:	eb f5                	jmp    403caf <atexit+0xf>

Disassembly of section .fini:

0000000000403cbc <_fini>:
  403cbc:	48 83 ec 08          	sub    $0x8,%rsp
  403cc0:	48 83 c4 08          	add    $0x8,%rsp
  403cc4:	c3                   	retq   

Disassembly of section .nv_fatbin:

0000000000404498 <fatbinData>:
  404498:	50                   	push   %rax
  404499:	ed                   	in     (%dx),%eax
  40449a:	55                   	push   %rbp
  40449b:	ba 01 00 10 00       	mov    $0x100001,%edx
	...

00000000004044a8 <fatbinData>:
  4044a8:	50                   	push   %rax
  4044a9:	ed                   	in     (%dx),%eax
  4044aa:	55                   	push   %rbp
  4044ab:	ba 01 00 10 00       	mov    $0x100001,%edx
  4044b0:	b0 36                	mov    $0x36,%al
  4044b2:	00 00                	add    %al,(%rax)
  4044b4:	00 00                	add    %al,(%rax)
  4044b6:	00 00                	add    %al,(%rax)
  4044b8:	01 00                	add    %eax,(%rax)
  4044ba:	01 01                	add    %eax,(%rcx)
  4044bc:	48 00 00             	rex.W add %al,(%rax)
  4044bf:	00 68 36             	add    %ch,0x36(%rax)
  4044c2:	00 00                	add    %al,(%rax)
  4044c4:	00 00                	add    %al,(%rax)
  4044c6:	00 00                	add    %al,(%rax)
  4044c8:	60                   	(bad)  
  4044c9:	36 00 00             	add    %al,%ss:(%rax)
  4044cc:	40 00 00             	add    %al,(%rax)
  4044cf:	00 00                	add    %al,(%rax)
  4044d1:	00 05 00 1e 00 00    	add    %al,0x1e00(%rip)        # 4062d7 <fatbinData+0x1e2f>
	...
  4044df:	00 15 20 00 00 00    	add    %dl,0x20(%rip)        # 404505 <fatbinData+0x5d>
	...
  4044ed:	00 00                	add    %al,(%rax)
  4044ef:	00 f9                	add    %bh,%cl
  4044f1:	26 01 00             	add    %eax,%es:(%rax)
	...
  404500:	13 0a                	adc    (%rdx),%ecx
  404502:	01 00                	add    %eax,(%rax)
  404504:	f0 1c 2e             	lock sbb $0x2e,%al
  404507:	76 65                	jbe    40456e <fatbinData+0xc6>
  404509:	72 73                	jb     40457e <fatbinData+0xd6>
  40450b:	69 6f 6e 20 35 2e 30 	imul   $0x302e3520,0x6e(%rdi),%ebp
  404512:	0a 2e                	or     (%rsi),%ch
  404514:	74 61                	je     404577 <fatbinData+0xcf>
  404516:	72 67                	jb     40457f <fatbinData+0xd7>
  404518:	65                   	gs
  404519:	74 20                	je     40453b <fatbinData+0x93>
  40451b:	73 6d                	jae    40458a <fatbinData+0xe2>
  40451d:	5f                   	pop    %rdi
  40451e:	33 30                	xor    (%rax),%esi
  404520:	0a 2e                	or     (%rsi),%ch
  404522:	61                   	(bad)  
  404523:	64                   	fs
  404524:	64                   	fs
  404525:	72 65                	jb     40458c <fatbinData+0xe4>
  404527:	73 73                	jae    40459c <fatbinData+0xf4>
  404529:	5f                   	pop    %rdi
  40452a:	73 69                	jae    404595 <fatbinData+0xed>
  40452c:	7a 65                	jp     404593 <fatbinData+0xeb>
  40452e:	20 36                	and    %dh,(%rsi)
  404530:	34 2e                	xor    $0x2e,%al
  404532:	00 f0                	add    %dh,%al
  404534:	0b 65 78             	or     0x78(%rbp),%esp
  404537:	74 65                	je     40459e <fatbinData+0xf6>
  404539:	72 6e                	jb     4045a9 <fatbinData+0x101>
  40453b:	20 2e                	and    %ch,(%rsi)
  40453d:	66                   	data16
  40453e:	75 6e                	jne    4045ae <fatbinData+0x106>
  404540:	63 20                	movslq (%rax),%esp
  404542:	28 2e                	sub    %ch,(%rsi)
  404544:	70 61                	jo     4045a7 <fatbinData+0xff>
  404546:	72 61                	jb     4045a9 <fatbinData+0x101>
  404548:	6d                   	insl   (%dx),%es:(%rdi)
  404549:	20 2e                	and    %ch,(%rsi)
  40454b:	62 33                	(bad)  
  40454d:	32 20                	xor    (%rax),%ah
  40454f:	12 00                	adc    (%rax),%al
  404551:	f5                   	cmc    
  404552:	05 5f 72 65 74       	add    $0x7465725f,%eax
  404557:	76 61                	jbe    4045ba <fatbinData+0x112>
  404559:	6c                   	insb   (%dx),%es:(%rdi)
  40455a:	30 29                	xor    %ch,(%rcx)
  40455c:	20 76 70             	and    %dh,0x70(%rsi)
  40455f:	72 69                	jb     4045ca <fatbinData+0x122>
  404561:	6e                   	outsb  %ds:(%rsi),(%dx)
  404562:	74 66                	je     4045ca <fatbinData+0x122>
  404564:	0a 28                	or     (%rax),%ch
  404566:	0a 24 00             	or     (%rax,%rax,1),%ah
  404569:	24 36                	and    $0x36,%al
  40456b:	34 16                	xor    $0x16,%al
  40456d:	00 11                	add    %dl,(%rcx)
  40456f:	5f                   	pop    %rdi
  404570:	13 00                	adc    (%rax),%eax
  404572:	3f                   	(bad)  
  404573:	5f                   	pop    %rdi
  404574:	30 2c 1d 00 08 5f 31 	xor    %ch,0x315f0800(,%rbx,1)
  40457b:	0a 29                	or     (%rcx),%ch
  40457d:	0a 3b                	or     (%rbx),%bh
  40457f:	70 00                	jo     404581 <fatbinData+0xd9>
  404581:	06                   	(bad)  
  404582:	2b 36                	sub    (%rsi),%esi
  404584:	34 70                	xor    $0x70,%al
  404586:	00 6b 6d             	add    %ch,0x6d(%rbx)
  404589:	61                   	(bad)  
  40458a:	6c                   	insb   (%dx),%es:(%rdi)
  40458b:	6c                   	insb   (%dx),%es:(%rdi)
  40458c:	6f                   	outsl  %ds:(%rsi),(%dx)
  40458d:	63 6f 00             	movslq 0x0(%rdi),%ebp
  404590:	02 15 00 04 6e 00    	add    0x6e0400(%rip),%dl        # ae4996 <_end+0x4db5de>
  404596:	02 51 00             	add    0x0(%rcx),%dl
  404599:	f1                   	icebp  
  40459a:	1c 67                	sbb    $0x67,%al
  40459c:	6c                   	insb   (%dx),%es:(%rdi)
  40459d:	6f                   	outsl  %ds:(%rsi),(%dx)
  40459e:	62 61 6c 20 2e 61 6c 	vucomiss 0x1b0(%rcx),%xmm28
  4045a5:	69 67 6e 20 31 20 2e 	imul   $0x2e203120,0x6e(%rdi),%esp
  4045ac:	62                   	(bad)  
  4045ad:	38 20                	cmp    %ah,(%rax)
  4045af:	5f                   	pop    %rdi
  4045b0:	5f                   	pop    %rdi
  4045b1:	54                   	push   %rsp
  4045b2:	32 30                	xor    (%rax),%dh
  4045b4:	5b                   	pop    %rbx
  4045b5:	39 5d 20             	cmp    %ebx,0x20(%rbp)
  4045b8:	3d 20 7b 31 30       	cmp    $0x30317b20,%eax
  4045bd:	39 2c 20             	cmp    %ebp,(%rax,%riz,1)
  4045c0:	39 37                	cmp    %esi,(%rdi)
  4045c2:	2c 20                	sub    $0x20,%al
  4045c4:	31 30                	xor    %esi,(%rax)
  4045c6:	05 00 a4 31 2c       	add    $0x2c31a400,%eax
  4045cb:	20 39                	and    %bh,(%rcx)
  4045cd:	35 2c 20 31 31       	xor    $0x3131202c,%eax
  4045d2:	32 13                	xor    (%rbx),%dl
  4045d4:	00 6f 31             	add    %ch,0x31(%rdi)
  4045d7:	36                   	ss
  4045d8:	2c 20                	sub    $0x20,%al
  4045da:	30 7d 4b             	xor    %bh,0x4b(%rbp)
  4045dd:	00 08                	add    %cl,(%rax)
  4045df:	43 33 5b 31          	rex.XB xor 0x31(%r11),%ebx
  4045e3:	34 4c                	xor    $0x4c,%al
  4045e5:	00 10                	add    %dl,(%rax)
  4045e7:	30 30                	xor    %dh,(%rax)
  4045e9:	00 15 31 05 00 53    	add    %dl,0x53000531(%rip)        # 53404b20 <_end+0x52dfb768>
  4045ef:	34 2c                	xor    $0x2c,%al
  4045f1:	20 39                	and    %bh,(%rcx)
  4045f3:	38 56 00             	cmp    %dl,0x0(%rsi)
  4045f6:	33 31                	xor    (%rcx),%esi
  4045f8:	30 38                	xor    %bh,(%rax)
  4045fa:	05 00 02 60 00       	add    $0x600200,%eax
  4045ff:	14 36                	adc    $0x36,%al
  404601:	18 00                	sbb    %al,(%rax)
  404603:	2f                   	(bad)  
  404604:	31 35 65 00 0d 44    	xor    %esi,0x440d0065(%rip)        # 444d466f <_end+0x43ecb2b7>
  40460a:	24 73                	and    $0x73,%al
  40460c:	74 72                	je     404680 <fatbinData+0x1d8>
  40460e:	64                   	fs
  40460f:	00 d1                	add    %dl,%cl
  404611:	36                   	ss
  404612:	35 2c 20 38 32       	xor    $0x3238202c,%eax
  404617:	2c 20                	sub    $0x20,%al
  404619:	38 30                	cmp    %dh,(%rax)
  40461b:	2c 20                	sub    $0x20,%al
  40461d:	33 a4 00 14 34 b7 00 	xor    0xb73414(%rax,%rax,1),%esp
  404624:	01 c0                	add    %eax,%eax
  404626:	00 15 30 57 00 54    	add    %dl,0x54005730(%rip)        # 54409d5c <_end+0x53e009a4>
  40462c:	34 2c                	xor    $0x2c,%al
  40462e:	20 35 38 25 00 0f    	and    %dh,0xf002538(%rip)        # f406b6c <_end+0xedfd7b4>
  404634:	5e                   	pop    %rsi
  404635:	00 0c 41             	add    %cl,(%rcx,%rax,2)
  404638:	31 5b 37             	xor    %ebx,0x37(%rbx)
  40463b:	30 5f 00             	xor    %bl,0x0(%rdi)
  40463e:	23 37                	and    (%rdi),%esi
  404640:	32 49 00             	xor    0x0(%rcx),%cl
  404643:	24 31                	and    $0x31,%al
  404645:	34 4e                	xor    $0x4e,%al
  404647:	00 29                	add    %ch,(%rcx)
  404649:	31 39                	xor    %edi,(%rcx)
  40464b:	13 00                	adc    (%rax),%eax
  40464d:	13 31                	adc    (%rcx),%esi
  40464f:	53                   	push   %rbx
  404650:	00 01                	add    %al,(%rcx)
  404652:	c1 00 25             	roll   $0x25,(%rax)
  404655:	32 31                	xor    (%rcx),%dh
  404657:	2b 01                	sub    (%rcx),%eax
  404659:	16                   	(bad)  
  40465a:	31 6f 00             	xor    %ebp,0x0(%rdi)
  40465d:	14 33                	adc    $0x33,%al
  40465f:	8a 00                	mov    (%rax),%al
  404661:	00 0d 00 25 34 30    	add    %cl,0x30342500(%rip)        # 30746b67 <_end+0x3013d7af>
  404667:	fc                   	cld    
  404668:	00 01                	add    %al,(%rcx)
  40466a:	2d 00 1f 30 28       	sub    $0x28301f00,%eax
  40466f:	00 00                	add    %al,(%rax)
  404671:	64                   	fs
  404672:	34 31                	xor    $0x31,%al
  404674:	2c 20                	sub    $0x20,%al
  404676:	34 34                	xor    $0x34,%al
  404678:	59                   	pop    %rcx
  404679:	00 14 32             	add    %dl,(%rdx,%rsi,1)
  40467c:	6c                   	insb   (%dx),%es:(%rdi)
  40467d:	00 24 31             	add    %ah,(%rcx,%rsi,1)
  404680:	31 68 00             	xor    %ebp,0x0(%rax)
  404683:	00 0a                	add    %cl,(%rdx)
  404685:	00 24 39             	add    %ah,(%rcx,%rdi,1)
  404688:	39 13                	cmp    %edx,(%rbx)
  40468a:	00 2f                	add    %ch,(%rdi)
  40468c:	30 38                	xor    %bh,(%rax)
  40468e:	84 00                	test   %al,(%rax)
  404690:	4e 04 54             	rex.WRX add $0x54,%al
  404693:	00 07                	add    %al,(%rdi)
  404695:	75 00                	jne    404697 <fatbinData+0x1ef>
  404697:	1f                   	(bad)  
  404698:	30 62 00             	xor    %ah,0x0(%rdx)
  40469b:	03 0f                	add    (%rdi),%ecx
  40469d:	5e                   	pop    %rsi
  40469e:	01 10                	add    %edx,(%rax)
  4046a0:	41 32 5b 36          	xor    0x36(%r11),%bl
  4046a4:	32 5e 01             	xor    0x1(%rsi),%bl
  4046a7:	28 38                	sub    %bh,(%rax)
  4046a9:	33 83 00 0b ad 01    	xor    0x1ad0b00(%rbx),%eax
  4046af:	00 54 00 22          	add    %dl,0x22(%rax,%rax,1)
  4046b3:	37                   	(bad)  
  4046b4:	33 da                	xor    %edx,%ebx
  4046b6:	01 09                	add    %ecx,(%rcx)
  4046b8:	9e                   	sahf   
  4046b9:	00 6f 31             	add    %ch,0x31(%rdi)
  4046bc:	37                   	(bad)  
  4046bd:	2c 20                	sub    $0x20,%al
  4046bf:	34 36                	xor    $0x36,%al
  4046c1:	0d 00 13 17 34       	or     $0x34171300,%eax
  4046c6:	16                   	(bad)  
  4046c7:	02 07                	add    (%rdi),%al
  4046c9:	11 02                	adc    %eax,(%rdx)
  4046cb:	1b 30                	sbb    (%rax),%esi
  4046cd:	11 02                	adc    %eax,(%rdx)
  4046cf:	00 31                	add    %dh,(%rcx)
  4046d1:	00 a3 34 38 2c 20    	add    %ah,0x202c3834(%rbx)
  4046d7:	35 30 2c 20 38       	xor    $0x38202c30,%eax
  4046dc:	38 18                	cmp    %bl,(%rax)
  4046de:	00 0f                	add    %cl,(%rdi)
  4046e0:	14 00                	adc    $0x0,%al
  4046e2:	4c 0f 27             	rex.WR (bad) 
  4046e5:	01 0e                	add    %ecx,(%rsi)
  4046e7:	15 33 27 01 19       	adc    $0x19012733,%eax
  4046ec:	34 72                	xor    $0x72,%al
  4046ee:	02 06                	add    (%rsi),%al
  4046f0:	35 01 1f 36 26       	xor    $0x26361f01,%eax
  4046f5:	01 f0                	add    %esi,%eax
  4046f7:	32 34 5b             	xor    (%rbx,%rbx,2),%dh
  4046fa:	38 26                	cmp    %ah,(%rsi)
  4046fc:	01 45 36             	add    %eax,0x36(%rbp)
  4046ff:	30 2c 20             	xor    %ch,(%rax,%riz,1)
  404702:	04 00                	add    $0x0,%al
  404704:	13 38                	adc    (%rax),%edi
  404706:	db 00                	fildl  (%rax)
  404708:	01 cf                	add    %ecx,%edi
  40470a:	04 23                	add    $0x23,%al
  40470c:	31 31                	xor    %esi,(%rcx)
  40470e:	21 04 23             	and    %eax,(%rbx,%riz,1)
  404711:	39 37                	cmp    %esi,(%rdi)
  404713:	c2 02 28             	retq   $0x2802
  404716:	30 37                	xor    %dh,(%rdi)
  404718:	44 01 26             	add    %r12d,(%rsi)
  40471b:	36 32 04 00          	xor    %ss:(%rax,%rax,1),%al
  40471f:	2f                   	(bad)  
  404720:	34 35                	xor    $0x35,%al
  404722:	04 00                	add    $0x0,%al
  404724:	eb 0f                	jmp    404735 <fatbinData+0x28d>
  404726:	70 01                	jo     404729 <fatbinData+0x281>
  404728:	0e                   	(bad)  
  404729:	32 35 5b 36 7a 05    	xor    0x57a365b(%rip),%dh        # 5ba7d8a <_end+0x559e9d2>
  40472f:	0f 0e                	femms  
  404731:	02 61 13             	add    0x13(%rcx),%ah
  404734:	33 a2 01 2f 36 32    	xor    0x32362f01(%rdx),%esp
  40473a:	92                   	xchg   %eax,%edx
  40473b:	02 67 2f             	add    0x2f(%rdi),%ah
  40473e:	33 32                	xor    (%rdx),%esi
  404740:	22 01                	and    (%rcx),%al
  404742:	0c 42                	or     $0x42,%al
  404744:	36                   	ss
  404745:	5b                   	pop    %rbx
  404746:	31 38                	xor    %edi,(%rax)
  404748:	00 07                	add    %al,(%rdi)
  40474a:	0f bb 05 17 05 65 00 	btc    %eax,0x650517(%rip)        # a54c68 <_end+0x44b8b0>
  404751:	05 c3 06 13 32       	add    $0x321306c3,%eax
  404756:	ac                   	lods   %ds:(%rsi),%al
  404757:	05 0f b0 06 12       	add    $0x1206b00f,%eax
  40475c:	32 37                	xor    (%rdi),%dh
  40475e:	5b                   	pop    %rbx
  40475f:	31 05 03 0f fb 03    	xor    %eax,0x3fb0f03(%rip)        # 43b5668 <_end+0x3dac2b0>
  404765:	1d 0f 56 00 0a       	sbb    $0xa00560f,%eax
  40476a:	31 38                	xor    %edi,(%rax)
  40476c:	5b                   	pop    %rbx
  40476d:	35 55 00 2b 34       	xor    $0x342b0055,%eax
  404772:	30 18                	xor    %bl,(%rax)
  404774:	06                   	(bad)  
  404775:	0f 36                	(bad)  
  404777:	00 0a                	add    %cl,(%rdx)
  404779:	13 39                	adc    (%rcx),%edi
  40477b:	36 00 0c ac          	add    %cl,%ss:(%rsp,%rbp,4)
  40477f:	01 0f                	add    %ecx,(%rdi)
  404781:	71 07                	jno    40478a <fatbinData+0x2e2>
  404783:	0b 32                	or     (%rdx),%esi
  404785:	30 5b 31             	xor    %bl,0x31(%rbx)
  404788:	72 07                	jb     404791 <fatbinData+0x2e9>
  40478a:	08 d1                	or     %dl,%cl
  40478c:	04 22                	add    $0x22,%al
  40478e:	39 35 0c 00 00 cf    	cmp    %esi,-0x30fffff4(%rip)        # ffffffffcf4047a0 <_end+0xffffffffcedfb3e8>
  404794:	03 27                	add    (%rdi),%esp
  404796:	36 31 85 00 0f bd 07 	xor    %eax,%ss:0x7bd0f00(%rbp)
  40479d:	0b 35 31 5b 39 4b    	or     0x4b395b31(%rip),%esi        # 4b79a2d4 <_end+0x4b190f1c>
  4047a3:	00 22                	add    %ah,(%rdx)
  4047a5:	38 34 04             	cmp    %dh,(%rsp,%rax,1)
  4047a8:	00 2b                	add    %ch,(%rbx)
  4047aa:	37                   	(bad)  
  4047ab:	36 43 00 0f          	rex.XB add %cl,%ss:(%r15)
  4047af:	93                   	xchg   %eax,%ebx
  4047b0:	00 0f                	add    %cl,(%rdi)
  4047b2:	35 32 5b 35 7f       	xor    $0x7f355b32,%eax
  4047b7:	05 26 36 37 63       	add    $0x63373626,%eax
  4047bc:	08 0f                	or     %cl,(%rdi)
  4047be:	36 00 0b             	add    %cl,%ss:(%rbx)
  4047c1:	14 33                	adc    $0x33,%al
  4047c3:	36 00 12             	add    %dl,%ss:(%rdx)
  4047c6:	35 b8 00 0f 36       	xor    $0x360f00b8,%eax
  4047cb:	00 13                	add    %dl,(%rbx)
  4047cd:	4f 34 5b             	rex.WRXB xor $0x5b,%al
  4047d0:	31 33                	xor    %esi,(%rbx)
  4047d2:	34 02                	xor    $0x2,%al
  4047d4:	21 0f                	and    %ecx,(%rdi)
  4047d6:	cb                   	lret   
  4047d7:	00 14 23             	add    %dl,(%rbx,%riz,1)
  4047da:	35 5b 92 02 0a       	xor    $0xa02925b,%eax
  4047df:	f5                   	cmc    
  4047e0:	07                   	(bad)  
  4047e1:	2f                   	(bad)  
  4047e2:	36 31 b7 07 19 2f 31 	xor    %esi,%ss:0x312f1907(%rdi)
  4047e9:	36 6b 05 c7 62 36 39 	imul   $0x2c,%ss:0x393662c7(%rip),%eax        # 3976aab8 <_end+0x39161700>
  4047f0:	2c 
  4047f1:	20 37                	and    %dh,(%rdi)
  4047f3:	38 ce                	cmp    %cl,%dh
  4047f5:	00 0f                	add    %cl,(%rdi)
  4047f7:	6b 05 76 58 31 37 5b 	imul   $0x5b,0x37315876(%rip),%eax        # 3771a074 <_end+0x37110cbc>
  4047fe:	34 33                	xor    $0x33,%al
  404800:	4a 0b 04 1a          	or     (%rdx,%r11,1),%rax
  404804:	0b 24 39             	or     (%rcx,%rdi,1),%esp
  404807:	35 26 04 2f 31       	xor    $0x312f0426,%eax
  40480c:	39 b2 07 9f 25 31    	cmp    %esi,0x31259f07(%rdx)
  404812:	38 d7                	cmp    %dl,%bh
  404814:	00 24 31             	add    %ah,(%rcx,%rsi,1)
  404817:	35 17 0c 1f 39       	xor    $0x391f0c17,%eax
  40481c:	d6                   	(bad)  
  40481d:	00 ae 4d 39 5b 31    	add    %ch,0x315b394d(%rsi)
  404823:	31 93 0c 63 37 39    	xor    %edx,0x3937630c(%rbx)
  404829:	2c 20                	sub    $0x20,%al
  40482b:	38 35 87 04 16 30    	cmp    %dh,0x30160487(%rip)        # 30564cb8 <_end+0x2ff5b900>
  404831:	0c 00                	or     $0x0,%al
  404833:	0f 24                	(bad)  
  404835:	0b 0f                	or     (%rdi),%ecx
  404837:	32 31                	xor    (%rcx),%dh
  404839:	5b                   	pop    %rbx
  40483a:	38 49 04             	cmp    %cl,0x4(%rcx)
  40483d:	14 39                	adc    $0x39,%al
  40483f:	a5                   	movsl  %ds:(%rsi),%es:(%rdi)
  404840:	03 00                	add    (%rax),%eax
  404842:	2d 01 58 39 33       	sub    $0x33395801,%eax
  404847:	2c 20                	sub    $0x20,%al
  404849:	39 b6 03 2f 39 33    	cmp    %esi,0x33392f03(%rsi)
  40484f:	54                   	push   %rsp
  404850:	08 8f 22 38 33 f5    	or     %cl,-0xaccc7de(%rdi)
  404856:	00 05 19 01 1c 34    	add    %al,0x341c0119(%rip)        # 345c4975 <_end+0x33fbb5bd>
  40485c:	09 03                	or     %eax,(%rbx)
  40485e:	0f 74 0e             	pcmpeqb (%rsi),%mm1
  404861:	11 0f                	adc    %ecx,(%rdi)
  404863:	d3 03                	roll   %cl,(%rbx)
  404865:	1e                   	(bad)  
  404866:	12 38                	adc    (%rax),%bh
  404868:	d7                   	xlat   %ds:(%rbx)
  404869:	03 23                	add    (%rbx),%esp
  40486b:	38 36                	cmp    %dh,(%rsi)
  40486d:	45 06                	rex.RB (bad) 
  40486f:	12 37                	adc    (%rdi),%dh
  404871:	10 00                	adc    %al,(%rax)
  404873:	2f                   	(bad)  
  404874:	34 36                	xor    $0x36,%al
  404876:	7f 01                	jg     404879 <fatbinData+0x3d1>
  404878:	11 4f 32             	adc    %ecx,0x32(%rdi)
  40487b:	5b                   	pop    %rbx
  40487c:	32 37                	xor    (%rdi),%dh
  40487e:	7f 01                	jg     404881 <fatbinData+0x3d9>
  404880:	14 2a                	adc    $0x2a,%al
  404882:	39 35 04 00 00 69    	cmp    %esi,0x69000004(%rip)        # 6940488c <_end+0x68dfb4d4>
  404888:	00 10                	add    %dl,(%rax)
  40488a:	37                   	(bad)  
  40488b:	ba 06 12 34 f0       	mov    $0xf0341206,%edx
  404890:	01 00                	add    %eax,(%rax)
  404892:	58                   	pop    %rax
  404893:	04 26                	add    $0x26,%al
  404895:	37                   	(bad)  
  404896:	31 20                	xor    %esp,(%rax)
  404898:	00 01                	add    %al,(%rcx)
  40489a:	e2 06                	loop   4048a2 <fatbinData+0x3fa>
  40489c:	13 32                	adc    (%rdx),%esi
  40489e:	9d                   	popfq  
  40489f:	00 03                	add    %al,(%rbx)
  4048a1:	08 00                	or     %al,(%rax)
  4048a3:	0f 91 00             	setno  (%rax)
  4048a6:	0f 1f 33             	nopl   (%rbx)
  4048a9:	10 02                	adc    %al,(%rdx)
  4048ab:	b7 0e                	mov    $0xe,%bh
  4048ad:	75 05                	jne    4048b4 <fatbinData+0x40c>
  4048af:	0f 10 02             	movups (%rdx),%xmm0
  4048b2:	8f                   	(bad)  
  4048b3:	4f 34 5b             	rex.WRXB xor $0x5b,%al
  4048b6:	37                   	(bad)  
  4048b7:	31 7f 01             	xor    %edi,0x1(%rdi)
  4048ba:	20 0f                	and    %cl,(%rdi)
  4048bc:	fb                   	sti    
  4048bd:	02 0d 0a f7 00 0f    	add    0xf00f70a(%rip),%cl        # f413fcd <_end+0xee0ac15>
  4048c3:	2f                   	(bad)  
  4048c4:	11 2a                	adc    %ebp,(%rdx)
  4048c6:	0e                   	(bad)  
  4048c7:	6b 06 0f             	imul   $0xf,(%rsi),%eax
  4048ca:	52                   	push   %rdx
  4048cb:	01 8b 4f 35 5b 37    	add    %ecx,0x375b354f(%rbx)
  4048d1:	32 d1                	xor    %cl,%dl
  4048d3:	02 28                	add    (%rax),%ch
  4048d5:	0e                   	(bad)  
  4048d6:	b2 07                	mov    $0x7,%dl
  4048d8:	0f 52 01             	rsqrtps (%rcx),%xmm0
  4048db:	d0 1f                	rcrb   (%rdi)
  4048dd:	38 55 01             	cmp    %dl,0x1(%rbp)
  4048e0:	0d 1f 36 26 04       	or     $0x426361f,%eax
  4048e5:	17                   	(bad)  
  4048e6:	15 33 cf 11 05       	adc    $0x511cf33,%eax
  4048eb:	5b                   	pop    %rbx
  4048ec:	10 05 65 07 05 ed    	adc    %al,-0x12faf89b(%rip)        # ffffffffed455057 <_end+0xffffffffece4bc9f>
  4048f2:	0b 0f                	or     (%rdi),%ecx
  4048f4:	26                   	es
  4048f5:	06                   	(bad)  
  4048f6:	7a 0f                	jp     404907 <fatbinData+0x45f>
  4048f8:	cd 01                	int    $0x1
  4048fa:	23 0f                	and    (%rdi),%ecx
  4048fc:	dd 02                	fldl   (%rdx)
  4048fe:	62                   	(bad)  
  4048ff:	3f                   	(bad)  
  404900:	37                   	(bad)  
  404901:	5b                   	pop    %rbx
  404902:	32 88 01 19 02 d6    	xor    -0x29fde6ff(%rax),%cl
  404908:	09 01                	or     %eax,(%rcx)
  40490a:	4e 02 19             	rex.WRX add (%rcx),%r11b
  40490d:	35 c8 00 14 38       	xor    $0x381400c8,%eax
  404912:	17                   	(bad)  
  404913:	00 07                	add    %al,(%rdi)
  404915:	97                   	xchg   %eax,%edi
  404916:	08 06                	or     %al,(%rsi)
  404918:	1b 0e                	sbb    (%rsi),%ecx
  40491a:	04 0d                	add    $0xd,%al
  40491c:	00 0f                	add    %cl,(%rdi)
  40491e:	72 13                	jb     404933 <fatbinData+0x48b>
  404920:	0f 4f 38             	cmovg  (%rax),%edi
  404923:	5b                   	pop    %rbx
  404924:	38 33                	cmp    %dh,(%rbx)
  404926:	18 02                	sbb    %al,(%rdx)
  404928:	a4                   	movsb  %ds:(%rsi),%es:(%rdi)
  404929:	0e                   	(bad)  
  40492a:	26                   	es
  40492b:	06                   	(bad)  
  40492c:	0f 10 02             	movups (%rdx),%xmm0
  40492f:	86 f6                	xchg   %dh,%dh
  404931:	10 0a                	adc    %cl,(%rdx)
  404933:	2e 76 69             	jbe,pn 40499f <fatbinData+0x4f7>
  404936:	73 69                	jae    4049a1 <fatbinData+0x4f9>
  404938:	62                   	(bad)  
  404939:	6c                   	insb   (%dx),%es:(%rdi)
  40493a:	65 20 2e             	and    %ch,%gs:(%rsi)
  40493d:	65 6e                	outsb  %gs:(%rsi),(%dx)
  40493f:	74 72                	je     4049b3 <fatbinData+0x50b>
  404941:	79 20                	jns    404963 <fatbinData+0x4bb>
  404943:	5f                   	pop    %rdi
  404944:	5a                   	pop    %rdx
  404945:	38 6d 61             	cmp    %ch,0x61(%rbp)
  404948:	6b 65 5f 70          	imul   $0x70,0x5f(%rbp),%esp
  40494c:	6b 74 50 69 69       	imul   $0x69,0x69(%rax,%rdx,2),%esi
  404951:	9e                   	sahf   
  404952:	17                   	(bad)  
  404953:	3b 75 36             	cmp    0x36(%rbp),%esi
  404956:	34 1c                	xor    $0x1c,%al
  404958:	00 0e                	add    %cl,(%rsi)
  40495a:	14 18                	adc    $0x18,%al
  40495c:	3f                   	(bad)  
  40495d:	75 33                	jne    404992 <fatbinData+0x4ea>
  40495f:	32 24 00             	xor    (%rax,%rax,1),%ah
  404962:	03 00                	add    (%rax),%eax
  404964:	1b 18                	sbb    (%rax),%ebx
  404966:	66                   	data16
  404967:	7b 0a                	jnp    404973 <fatbinData+0x4cb>
  404969:	2e                   	cs
  40496a:	6c                   	insb   (%dx),%es:(%rdi)
  40496b:	6f                   	outsl  %ds:(%rsi),(%dx)
  40496c:	63 eb                	movslq %ebx,%ebp
  40496e:	01 13                	add    %edx,(%rbx)
  404970:	38 7e 17             	cmp    %bh,0x17(%rsi)
  404973:	01 15 00 f2 03 5f    	add    %edx,0x5f03f200(%rip)        # 5f443b79 <_end+0x5ee3a7c1>
  404979:	64                   	fs
  40497a:	65                   	gs
  40497b:	70 6f                	jo     4049ec <fatbinData+0x544>
  40497d:	74 30                	je     4049af <fatbinData+0x507>
  40497f:	5b                   	pop    %rbx
  404980:	31 31                	xor    %esi,(%rcx)
  404982:	32 5d 3b             	xor    0x3b(%rbp),%bl
  404985:	0a 2e                	or     (%rsi),%ch
  404987:	72 65                	jb     4049ee <fatbinData+0x546>
  404989:	67 10 18             	adc    %bl,(%eax)
  40498c:	3b 25 53 50 0f 00    	cmp    0xf5053(%rip),%esp        # 4f99e5 <__FRAME_END__+0xf14ed>
  404992:	14 4c                	adc    $0x4c,%al
  404994:	10 00                	adc    %al,(%rax)
  404996:	b5 70                	mov    $0x70,%ch
  404998:	72 65                	jb     4049ff <fatbinData+0x557>
  40499a:	64 20 25 70 3c 31 34 	and    %ah,%fs:0x34313c70(%rip)        # 34718611 <_end+0x3410f259>
  4049a1:	3e 23 00             	and    %ds:(%rax),%eax
  4049a4:	a6                   	cmpsb  %es:(%rdi),%ds:(%rsi)
  4049a5:	31 36                	xor    %esi,(%rsi)
  4049a7:	20 25 72 73 3c 32    	and    %ah,0x323c7372(%rip)        # 327cbd1f <_end+0x321c2967>
  4049ad:	36 31 14 00          	xor    %edx,%ss:(%rax,%rax,1)
  4049b1:	a9 33 32 20 25       	test   $0x25203233,%eax
  4049b6:	72 3c                	jb     4049f4 <fatbinData+0x54c>
  4049b8:	32 30                	xor    (%rax),%dh
  4049ba:	35 3e 4a 00 f2       	xor    $0xf2004a3e,%eax
  4049bf:	01 72 64             	add    %esi,0x64(%rdx)
  4049c2:	3c 31                	cmp    $0x31,%al
  4049c4:	33 30                	xor    (%rax),%esi
  4049c6:	3e 3b 0a             	cmp    %ds:(%rdx),%ecx
  4049c9:	0a 0a                	or     (%rdx),%cl
  4049cb:	6d                   	insl   (%dx),%es:(%rdi)
  4049cc:	6f                   	outsl  %ds:(%rsi),(%dx)
  4049cd:	76 2e                	jbe    4049fd <fatbinData+0x555>
  4049cf:	75 14                	jne    4049e5 <fatbinData+0x53d>
  4049d1:	00 4b 31             	add    %cl,0x31(%rbx)
  4049d4:	32 39                	xor    (%rcx),%bh
  4049d6:	2c 94                	sub    $0x94,%al
  4049d8:	00 62 3b             	add    %ah,0x3b(%rdx)
  4049db:	0a 63 76             	or     0x76(%rbx),%ah
  4049de:	74 61                	je     404a41 <fatbinData+0x599>
  4049e0:	bc 00 02 27 00       	mov    $0x270200,%esp
  4049e5:	33 53 50             	xor    0x50(%rbx),%edx
  4049e8:	2c 2c                	sub    $0x2c,%al
  4049ea:	00 42 3b             	add    %al,0x3b(%rdx)
  4049ed:	0a 6c 64 fd          	or     -0x3(%rsp,%riz,2),%ch
  4049f1:	00 04 41             	add    %al,(%rcx,%rax,2)
  4049f4:	00 5f 32             	add    %bl,0x32(%rdi)
  4049f7:	36                   	ss
  4049f8:	2c 20                	sub    $0x20,%al
  4049fa:	5b                   	pop    %rbx
  4049fb:	28 01                	sub    %al,(%rcx)
  4049fd:	03 18                	add    (%rax),%ebx
  4049ff:	5d                   	pop    %rbp
  404a00:	2e 00 01             	add    %al,%cs:(%rcx)
  404a03:	96                   	xchg   %eax,%esi
  404a04:	00 1f                	add    %bl,(%rdi)
  404a06:	34 2c                	xor    $0x2c,%al
  404a08:	00 05 75 31 5d 3b    	add    %al,0x3b5d3175(%rip)        # 3b9d7b83 <_end+0x3b3ce7cb>
  404a0e:	0a 61 64             	or     0x64(%rcx),%ah
  404a11:	64                   	fs
  404a12:	55                   	push   %rbp
  404a13:	00 22                	add    %ah,(%rdx)
  404a15:	37                   	(bad)  
  404a16:	2c 76                	sub    $0x76,%al
  404a18:	00 13                	add    %dl,(%rbx)
  404a1a:	38 8d 00 28 74 6f    	cmp    %cl,0x6f742800(%rbp)
  404a20:	90                   	nop
  404a21:	00 42 72             	add    %al,0x72(%rdx)
  404a24:	64 31 2c 27          	xor    %ebp,%fs:(%rdi,%riz,1)
  404a28:	00 18                	add    %bl,(%rax)
  404a2a:	3b cc                	cmp    %esp,%ecx
  404a2c:	00 32                	add    %dh,(%rdx)
  404a2e:	32 38                	xor    (%rax),%bh
  404a30:	2c 28                	sub    $0x28,%al
  404a32:	19 03                	sbb    %eax,(%rbx)
  404a34:	35 00 02 6a 03       	xor    $0x36a0200,%eax
  404a39:	05 1e 00 12 39       	add    $0x3912001e,%eax
  404a3e:	34 00                	xor    $0x0,%al
  404a40:	57                   	push   %rdi
  404a41:	38 3b                	cmp    %bh,(%rbx)
  404a43:	0a 73 74             	or     0x74(%rbx),%dh
  404a46:	4e 00 10             	rex.WRX add %r10b,(%rax)
  404a49:	5b                   	pop    %rbx
  404a4a:	4f 00 12             	rex.WRXB add %r10b,(%r10)
  404a4d:	5d                   	pop    %rbp
  404a4e:	1c 00                	sbb    $0x0,%al
  404a50:	12 39                	adc    (%rcx),%bh
  404a52:	86 00                	xchg   %al,(%rax)
  404a54:	13 73 32             	adc    0x32(%rbx),%esi
  404a57:	00 13                	add    %dl,(%rbx)
  404a59:	2c 6b                	sub    $0x6b,%al
  404a5b:	00 13                	add    %dl,(%rbx)
  404a5d:	38 67 00             	cmp    %ah,0x0(%rdi)
  404a60:	01 c4                	add    %eax,%esp
  404a62:	00 68 35             	add    %ch,0x35(%rax)
  404a65:	2c 20                	sub    $0x20,%al
  404a67:	35 39 34 45 00       	xor    $0x453439,%eax
  404a6c:	22 33                	and    (%rbx),%dh
  404a6e:	32 45 00             	xor    0x0(%rbp),%al
  404a71:	21 2b                	and    %ebp,(%rbx)
  404a73:	38 47 00             	cmp    %al,0x0(%rdi)
  404a76:	19 35 95 00 33 33    	sbb    %esi,0x33330095(%rip)        # 33734b11 <_end+0x3312b759>
  404a7c:	30 2c 2d 0c 0f 96 00 	xor    %ch,0x960f0c(,%rbp,1)
  404a83:	02 12                	add    (%rdx),%dl
  404a85:	33 ca                	xor    %edx,%ecx
  404a87:	00 77 33             	add    %dh,0x33(%rdi)
  404a8a:	30 3b                	xor    %bh,(%rbx)
  404a8c:	0a 0a                	or     (%rdx),%cl
  404a8e:	09 7b c3             	or     %edi,-0x3d(%rbx)
  404a91:	01 43 74             	add    %eax,0x74(%rbx)
  404a94:	65                   	gs
  404a95:	6d                   	insl   (%dx),%es:(%rdi)
  404a96:	70 1d                	jo     404ab5 <fatbinData+0x60d>
  404a98:	01 30                	add    %esi,(%rax)
  404a9a:	72 65                	jb     404b01 <fatbinData+0x659>
  404a9c:	67 1e                	addr32 (bad) 
  404a9e:	00 08                	add    %cl,(%rax)
  404aa0:	37                   	(bad)  
  404aa1:	1a 01                	sbb    (%rcx),%al
  404aa3:	0b 00                	or     (%rax),%eax
  404aa5:	11 30                	adc    %esi,(%rax)
  404aa7:	85 00                	test   %eax,(%rax)
  404aa9:	02 60 01             	add    0x1(%rax),%ah
  404aac:	52                   	push   %rdx
  404aad:	62                   	(bad)  
  404aae:	36                   	ss
  404aaf:	34 09                	xor    $0x9,%al
  404ab1:	5b                   	pop    %rbx
  404ab2:	16                   	(bad)  
  404ab3:	00 22                	add    %ah,(%rdx)
  404ab5:	2b 30                	sub    (%rax),%esi
  404ab7:	ce                   	(bad)  
  404ab8:	00 4d 33             	add    %cl,0x33(%rbp)
  404abb:	31 3b                	xor    %edi,(%rbx)
  404abd:	0a 34 00             	or     (%rax,%rax,1),%dh
  404ac0:	1f                   	(bad)  
  404ac1:	31 34 00             	xor    %esi,(%rax,%rax,1)
  404ac4:	02 14 31             	add    (%rcx,%rsi,1),%dl
  404ac7:	34 00                	xor    $0x0,%al
  404ac9:	00 52 01             	add    %dl,0x1(%rdx)
  404acc:	08 32                	or     %dh,(%rdx)
  404ace:	1b 03                	sbb    (%rbx),%eax
  404ad0:	bd 1a c4 3b 0a       	mov    $0xa3bc41a,%ebp
  404ad5:	63 61 6c             	movslq 0x6c(%rcx),%esp
  404ad8:	6c                   	insb   (%dx),%es:(%rdi)
  404ad9:	2e 75 6e             	jne,pn 404b4a <fatbinData+0x6a2>
  404adc:	69 20 28 d0 1a 33    	imul   $0x331ad028,(%rax),%esp
  404ae2:	2c 20                	sub    $0x20,%al
  404ae4:	0a 0f                	or     (%rdi),%cl
  404ae6:	1b 52 2c             	sbb    0x2c(%rdx),%edx
  404ae9:	20 0a                	and    %cl,(%rdx)
  404aeb:	28 0a                	sub    %cl,(%rdx)
  404aed:	7c 00                	jl     404aef <fatbinData+0x647>
  404aef:	22 2c 20             	and    (%rax,%riz,1),%ch
  404af2:	09 00                	or     %eax,(%rax)
  404af4:	37                   	(bad)  
  404af5:	31 0a                	xor    %ecx,(%rdx)
  404af7:	29 fd                	sub    %edi,%ebp
  404af9:	01 60 62             	add    %esp,0x62(%rax)
  404afc:	33 32                	xor    (%rdx),%esi
  404afe:	09 25 72 29 02 03    	or     %esp,0x3022972(%rip)        # 3427476 <_end+0x2e1e0be>
  404b04:	3d 00 10 2b 1c       	cmp    $0x1c2b1000,%eax
  404b09:	02 68 0a             	add    0xa(%rax),%ch
  404b0c:	0a 09                	or     (%rcx),%cl
  404b0e:	7d 0a                	jge    404b1a <fatbinData+0x672>
  404b10:	09 2b                	or     %ebp,(%rbx)
  404b12:	01 00                	add    %eax,(%rax)
  404b14:	69 0b 0f 09 01 41    	imul   $0x4101090f,(%rbx),%ecx
  404b1a:	1a 32                	sbb    (%rdx),%dh
  404b1c:	09 01                	or     %eax,(%rcx)
  404b1e:	0f d5 00             	pmullw (%rax),%mm0
  404b21:	0b 02                	or     (%rdx),%eax
  404b23:	92                   	xchg   %eax,%edx
  404b24:	1b 07                	sbb    (%rdi),%eax
  404b26:	d4                   	(bad)  
  404b27:	00 0a                	add    %cl,(%rdx)
  404b29:	cb                   	lret   
  404b2a:	00 30                	add    %dh,(%rax)
  404b2c:	36                   	ss
  404b2d:	34 09                	xor    $0x9,%al
  404b2f:	53                   	push   %rbx
  404b30:	00 0f                	add    %cl,(%rdi)
  404b32:	cc                   	int3   
  404b33:	00 02                	add    %al,(%rdx)
  404b35:	07                   	(bad)  
  404b36:	c2 02 23             	retq   $0x2302
  404b39:	33 33                	xor    (%rbx),%esi
  404b3b:	c2 02 1f             	retq   $0x1f02
  404b3e:	30 c2                	xor    %al,%dl
  404b40:	02 04 22             	add    (%rdx,%riz,1),%al
  404b43:	33 34 9c             	xor    (%rsp,%rbx,4),%esi
  404b46:	00 18                	add    %bl,(%rax)
  404b48:	33 5c 02 68          	xor    0x68(%rdx,%rax,1),%ebx
  404b4c:	37                   	(bad)  
  404b4d:	2c 20                	sub    $0x20,%al
  404b4f:	32 35 35 5c 02 11    	xor    0x11025c35(%rip),%dh        # 1142a78a <_end+0x10e213d2>
  404b55:	38 5b 02             	cmp    %bl,0x2(%rbx)
  404b58:	41 33 34 2b          	xor    (%r11,%rbp,1),%esi
  404b5c:	33 cc                	xor    %esp,%ecx
  404b5e:	00 1f                	add    %bl,(%rdi)
  404b60:	37                   	(bad)  
  404b61:	1c 00                	sbb    $0x0,%al
  404b63:	02 1f                	add    (%rdi),%bl
  404b65:	32 1c 00             	xor    (%rax,%rax,1),%bl
  404b68:	08 1f                	or     %bl,(%rdi)
  404b6a:	31 1c 00             	xor    %ebx,(%rax,%rax,1)
  404b6d:	07                   	(bad)  
  404b6e:	04 1a                	add    $0x1a,%al
  404b70:	00 01                	add    %al,(%rcx)
  404b72:	80 00 02             	addb   $0x2,(%rax)
  404b75:	4a 04 1f             	rex.WX add $0x1f,%al
  404b78:	31 81 00 07 11 35    	xor    %eax,0x35110700(%rcx)
  404b7e:	2f                   	(bad)  
  404b7f:	00 2f                	add    %ch,(%rdi)
  404b81:	73 31                	jae    404bb4 <fatbinData+0x70c>
  404b83:	1d 00 02 15 34       	sbb    $0x34150200,%eax
  404b88:	1d 00 08 fb 02       	sbb    $0x2fb0800,%eax
  404b8d:	23 35 2c 77 0f 0f    	and    0xf0f772c(%rip),%esi        # f4fc2bf <_end+0xeef2f07>
  404b93:	fb                   	sti    
  404b94:	02 03                	add    (%rbx),%al
  404b96:	12 36                	adc    (%rsi),%dh
  404b98:	02 01                	add    (%rcx),%al
  404b9a:	0a 30                	or     (%rax),%dh
  404b9c:	03 5f 31             	add    0x31(%rdi),%ebx
  404b9f:	32 34 2c             	xor    (%rsp,%rbp,1),%dh
  404ba2:	20 05 02 41 1f 36    	and    %al,0x361f4102(%rip)        # 365f8caa <_end+0x35fef8f2>
  404ba8:	0e                   	(bad)  
  404ba9:	03 1f                	add    (%rdi),%ebx
  404bab:	3f                   	(bad)  
  404bac:	31 32                	xor    %esi,(%rdx)
  404bae:	34 0f                	xor    $0xf,%al
  404bb0:	03 47 1f             	add    0x1f(%rdi),%eax
  404bb3:	38 43 02             	cmp    %al,0x2(%rbx)
  404bb6:	0e                   	(bad)  
  404bb7:	04 05                	add    $0x5,%al
  404bb9:	05 2f 36 34 44       	add    $0x4434362f,%eax
  404bbe:	02 05 12 38 db 00    	add    0xdb3812(%rip),%al        # 11b83d6 <_end+0xbaf01e>
  404bc4:	1f                   	(bad)  
  404bc5:	37                   	(bad)  
  404bc6:	8e 04 00             	mov    (%rax,%rax,1),%es
  404bc9:	12 33                	adc    (%rbx),%dh
  404bcb:	8d 04 0f             	lea    (%rdi,%rcx,1),%eax
  404bce:	1b 00                	sbb    (%rax),%eax
  404bd0:	03 2d 2b 34 1d 00    	add    0x1d342b(%rip),%ebp        # 5d8001 <__FRAME_END__+0x1cfb09>
  404bd6:	28 76 32             	sub    %dh,0x32(%rsi)
  404bd9:	20 00                	and    %al,(%rax)
  404bdb:	00 3d 00 11 7b 90    	add    %bh,-0x6f84ef00(%rip)        # ffffffff90bb5ce1 <_end+0xffffffff905ac929>
  404be1:	02 4f 25             	add    0x25(%rdi),%cl
  404be4:	72 37                	jb     404c1d <fatbinData+0x775>
  404be6:	7d 27                	jge    404c0f <fatbinData+0x767>
  404be8:	00 06                	add    %al,(%rsi)
  404bea:	2b 31                	sub    (%rcx),%esi
  404bec:	36 28 00             	sub    %al,%ss:(%rax)
  404bef:	08 fe                	or     %bh,%dh
  404bf1:	01 13                	add    %edx,(%rbx)
  404bf3:	39 fe                	cmp    %edi,%esi
  404bf5:	01 1f                	add    %ebx,(%rdi)
  404bf7:	37                   	(bad)  
  404bf8:	fe 01                	incb   (%rcx)
  404bfa:	02 22                	add    (%rdx),%ah
  404bfc:	34 30                	xor    $0x30,%al
  404bfe:	bc 00 1f 39 eb       	mov    $0xeb391f00,%esp
  404c03:	01 3f                	add    %edi,(%rdi)
  404c05:	2f                   	(bad)  
  404c06:	34 30                	xor    $0x30,%al
  404c08:	eb 01                	jmp    404c0b <fatbinData+0x763>
  404c0a:	1f                   	(bad)  
  404c0b:	1f                   	(bad)  
  404c0c:	33 f9                	xor    %ecx,%edi
  404c0e:	04 48                	add    $0x48,%al
  404c10:	1f                   	(bad)  
  404c11:	39 f9                	cmp    %edi,%ecx
  404c13:	04 07                	add    $0x7,%al
  404c15:	01 f6                	add    %esi,%esi
  404c17:	03 01                	add    (%rcx),%eax
  404c19:	9b                   	fwait
  404c1a:	08 0f                	or     %cl,(%rdi)
  404c1c:	c3                   	retq   
  404c1d:	01 07                	add    %eax,(%rdi)
  404c1f:	28 31                	sub    %dh,(%rcx)
  404c21:	30 23                	xor    %ah,(%rbx)
  404c23:	04 00                	add    $0x0,%al
  404c25:	48 09 1f             	or     %rbx,(%rdi)
  404c28:	32 d6                	xor    %dh,%dl
  404c2a:	01 0a                	add    %ecx,(%rdx)
  404c2c:	29 31                	sub    %esi,(%rcx)
  404c2e:	31 30                	xor    %esi,(%rax)
  404c30:	00 00                	add    %al,(%rax)
  404c32:	bb 0a 19 38 c2       	mov    $0xc238190a,%ebx
  404c37:	06                   	(bad)  
  404c38:	10 31                	adc    %dh,(%rcx)
  404c3a:	42 0a 1f             	rex.X or (%rdi),%bl
  404c3d:	33 fc                	xor    %esp,%edi
  404c3f:	01 0d 21 31 33 4d    	add    %ecx,0x4d333121(%rip)        # 4d737d66 <_end+0x4d12e9ae>
  404c45:	00 29                	add    %ch,(%rcx)
  404c47:	32 7d 3b             	xor    0x3b(%rbp),%bh
  404c4a:	00 00                	add    %al,(%rax)
  404c4c:	30 11                	xor    %dl,(%rcx)
  404c4e:	19 32                	sbb    %esi,(%rdx)
  404c50:	12 00                	adc    (%rax),%al
  404c52:	00 ad 09 1f 37 22    	add    %ch,0x22371f09(%rbp)
  404c58:	02 0e                	add    (%rsi),%cl
  404c5a:	21 31                	and    %esi,(%rcx)
  404c5c:	35 4e 00 1a 34       	xor    $0x341a004e,%eax
  404c61:	24 02                	and    $0x2,%al
  404c63:	23 34 31             	and    (%rcx,%rsi,1),%esi
  404c66:	24 02                	and    $0x2,%al
  404c68:	1f                   	(bad)  
  404c69:	38 24 02             	cmp    %ah,(%rdx,%rax,1)
  404c6c:	03 02                	add    (%rdx),%eax
  404c6e:	82                   	(bad)  
  404c6f:	07                   	(bad)  
  404c70:	2f                   	(bad)  
  404c71:	34 31                	xor    $0x31,%al
  404c73:	24 02                	and    $0x2,%al
  404c75:	40 1f                	rex (bad) 
  404c77:	32 24 02             	xor    (%rdx,%rax,1),%ah
  404c7a:	7b 1f                	jnp    404c9b <fatbinData+0x7f3>
  404c7c:	31 1e                	xor    %ebx,(%rsi)
  404c7e:	07                   	(bad)  
  404c7f:	08 02                	or     %al,(%rdx)
  404c81:	9b                   	fwait
  404c82:	05 14 32 25 02       	add    $0x2253214,%eax
  404c87:	04 76                	add    $0x76,%al
  404c89:	05 22 2b 36 75       	add    $0x75362b22,%eax
  404c8e:	05 19 32 16 00       	add    $0x163219,%eax
  404c93:	0a 89 05 02 3b 00    	or     0x3b0205(%rcx),%cl
  404c99:	15 33 33 02 05       	adc    $0x5023333,%eax
  404c9e:	3c 00                	cmp    $0x0,%al
  404ca0:	12 37                	adc    (%rdi),%dh
  404ca2:	28 00                	sub    %al,(%rax)
  404ca4:	1a 33                	sbb    (%rbx),%dh
  404ca6:	16                   	(bad)  
  404ca7:	00 1f                	add    %bl,(%rdi)
  404ca9:	31 3e                	xor    %edi,(%rsi)
  404cab:	00 01                	add    %al,(%rcx)
  404cad:	00 7a 1e             	add    %bh,0x1e(%rdx)
  404cb0:	0b 28                	or     (%rax),%ebp
  404cb2:	00 02                	add    %al,(%rdx)
  404cb4:	99                   	cltd   
  404cb5:	02 2a                	add    (%rdx),%ch
  404cb7:	73 34                	jae    404ced <fatbinData+0x845>
  404cb9:	16                   	(bad)  
  404cba:	00 1f                	add    %bl,(%rdi)
  404cbc:	32 3e                	xor    (%rsi),%bh
  404cbe:	00 01                	add    %al,(%rcx)
  404cc0:	13 35 7f 02 08 29    	adc    0x2908027f(%rip),%esi        # 29484f45 <_end+0x28e7bb8d>
  404cc6:	00 12                	add    %dl,(%rdx)
  404cc8:	39 29                	cmp    %ebp,(%rcx)
  404cca:	00 1a                	add    %bl,(%rdx)
  404ccc:	35 16 00 0f bb       	xor    $0xbb0f0016,%eax
  404cd1:	00 02                	add    %al,(%rdx)
  404cd3:	15 36 5e 02 06       	adc    $0x6025e36,%eax
  404cd8:	a5                   	movsl  %ds:(%rsi),%es:(%rdi)
  404cd9:	00 02                	add    %al,(%rdx)
  404cdb:	8f 01                	popq   (%rcx)
  404cdd:	2a 73 36             	sub    0x36(%rbx),%dh
  404ce0:	17                   	(bad)  
  404ce1:	00 1f                	add    %bl,(%rdi)
  404ce3:	34 3f                	xor    $0x3f,%al
  404ce5:	00 01                	add    %al,(%rcx)
  404ce7:	12 37                	adc    (%rdi),%dh
  404ce9:	af                   	scas   %es:(%rdi),%eax
  404cea:	02 09                	add    (%rcx),%cl
  404cec:	3f                   	(bad)  
  404ced:	00 03                	add    %al,(%rbx)
  404cef:	e5 00                	in     $0x0,%eax
  404cf1:	0b 56 00             	or     0x0(%rsi),%edx
  404cf4:	06                   	(bad)  
  404cf5:	df 06                	fild   (%rsi)
  404cf7:	04 6b                	add    $0x6b,%al
  404cf9:	05 0b 8c 02 02       	add    $0x2028c0b,%eax
  404cfe:	20 09                	and    %cl,(%rcx)
  404d00:	19 36                	sbb    %esi,(%rsi)
  404d02:	a8 0a                	test   $0xa,%al
  404d04:	14 34                	adc    $0x34,%al
  404d06:	e6 07                	out    %al,$0x7
  404d08:	1f                   	(bad)  
  404d09:	32 a3 05 05 22 35    	xor    0x35220505(%rbx),%ah
  404d0f:	2c 28                	sub    $0x28,%al
  404d11:	00 09                	add    %cl,(%rcx)
  404d13:	96                   	xchg   %eax,%esi
  404d14:	00 00                	add    %al,(%rax)
  404d16:	a7                   	cmpsl  %es:(%rdi),%ds:(%rsi)
  404d17:	0c 0b                	or     $0xb,%al
  404d19:	95                   	xchg   %eax,%ebp
  404d1a:	00 03                	add    %al,(%rbx)
  404d1c:	fd                   	std    
  404d1d:	00 19                	add    %bl,(%rcx)
  404d1f:	38 28                	cmp    %ch,(%rax)
  404d21:	00 00                	add    %al,(%rax)
  404d23:	cb                   	lret   
  404d24:	0c 0b                	or     $0xb,%al
  404d26:	28 00                	sub    %al,(%rax)
  404d28:	03 64 01 1a          	add    0x1a(%rcx,%rax,1),%esp
  404d2c:	39 b6 07 00 66 0d    	cmp    %esi,0xd660007(%rsi)
  404d32:	0b 29                	or     (%rcx),%ebp
  404d34:	00 04 d0             	add    %al,(%rax,%rdx,8)
  404d37:	00 0b                	add    %cl,(%rbx)
  404d39:	34 02                	xor    $0x2,%al
  404d3b:	2f                   	(bad)  
  404d3c:	31 34 35 02 01 3f 2b 	xor    %esi,0x2b3f0102(,%rsi,1)
  404d43:	31 37                	xor    %esi,(%rdi)
  404d45:	17                   	(bad)  
  404d46:	00 03                	add    %al,(%rbx)
  404d48:	15 36 6f 00 09       	adc    $0x9006f36,%eax
  404d4d:	e9 01 1f 31 5d       	jmpq   5d716c53 <_end+0x5d10d89b>
  404d52:	00 03                	add    %al,(%rbx)
  404d54:	2f                   	(bad)  
  404d55:	32 30                	xor    (%rax),%dh
  404d57:	46 00 02             	rex.RX add %r8b,(%rdx)
  404d5a:	2f                   	(bad)  
  404d5b:	32 37                	xor    (%rdi),%dh
  404d5d:	72 01                	jb     404d60 <fatbinData+0x8b8>
  404d5f:	02 2f                	add    (%rdi),%ch
  404d61:	32 36                	xor    (%rsi),%dh
  404d63:	c8 01 02 2f          	enterq $0x201,$0x2f
  404d67:	31 38                	xor    %edi,(%rax)
  404d69:	0b 01                	or     (%rcx),%eax
  404d6b:	01 00                	add    %eax,(%rax)
  404d6d:	f7 04 0b 6f 02 13 31 	testl  $0x3113026f,(%rbx,%rcx,1)
  404d74:	47 02 0b             	rex.RXB add (%r11),%r9b
  404d77:	f0 04 00             	lock add $0x0,%al
  404d7a:	44 09 0b             	or     %r9d,(%rbx)
  404d7d:	59                   	pop    %rcx
  404d7e:	02 02                	add    (%rdx),%al
  404d80:	af                   	scas   %es:(%rdi),%eax
  404d81:	00 0c 48             	add    %cl,(%rax,%rcx,2)
  404d84:	02 12                	add    (%rdx),%dl
  404d86:	33 ae 00 0d c5 00    	xor    0xc50d00(%rsi),%ebp
  404d8c:	1f                   	(bad)  
  404d8d:	39 76 05             	cmp    %esi,0x5(%rsi)
  404d90:	01 01                	add    %eax,(%rcx)
  404d92:	ab                   	stos   %eax,%es:(%rdi)
  404d93:	0e                   	(bad)  
  404d94:	0b 29                	or     (%rcx),%ebp
  404d96:	00 03                	add    %al,(%rbx)
  404d98:	9f                   	lahf   
  404d99:	05 0a 5c 05 1d       	add    $0x1d055c0a,%eax
  404d9e:	39 8b 01 13 34 7f    	cmp    %ecx,0x7f341301(%rbx)
  404da4:	00 0b                	add    %cl,(%rbx)
  404da6:	45 01 1f             	add    %r11d,(%r15)
  404da9:	34 7f                	xor    $0x7f,%al
  404dab:	00 03                	add    %al,(%rbx)
  404dad:	2f                   	(bad)  
  404dae:	33 39                	xor    (%rcx),%edi
  404db0:	17                   	(bad)  
  404db1:	00 03                	add    %al,(%rbx)
  404db3:	06                   	(bad)  
  404db4:	6d                   	insl   (%dx),%es:(%rdi)
  404db5:	00 09                	add    %cl,(%rcx)
  404db7:	84 00                	test   %al,(%rax)
  404db9:	02 e7                	add    %bh,%ah
  404dbb:	01 1c 31             	add    %ebx,(%rcx,%rsi,1)
  404dbe:	72 01                	jb     404dc1 <fatbinData+0x919>
  404dc0:	03 0a                	add    (%rdx),%ecx
  404dc2:	06                   	(bad)  
  404dc3:	0b b7 03 25 32 33    	or     0x33322503(%rdi),%esi
  404dc9:	21 06                	and    %eax,(%rsi)
  404dcb:	09 17                	or     %edx,(%rdi)
  404dcd:	00 15 32 73 00 26    	add    %dl,0x26007332(%rip)        # 2640c105 <_end+0x25e02d4d>
  404dd3:	6c                   	insb   (%dx),%es:(%rdi)
  404dd4:	64 db 09             	fisttpl %fs:(%rcx)
  404dd7:	00 5b 01             	add    %bl,0x1(%rbx)
  404dda:	24 32                	and    $0x32,%al
  404ddc:	2c 2c                	sub    $0x2c,%al
  404dde:	0a 0e                	or     (%rsi),%cl
  404de0:	1c 00                	sbb    $0x0,%al
  404de2:	26 33 2c 64          	xor    %es:(%rsp,%riz,2),%ebp
  404de6:	0a 0e                	or     (%rsi),%cl
  404de8:	1e                   	(bad)  
  404de9:	00 26                	add    %ah,(%rsi)
  404deb:	34 2c                	xor    $0x2c,%al
  404ded:	9e                   	sahf   
  404dee:	0a 0e                	or     (%rsi),%cl
  404df0:	1e                   	(bad)  
  404df1:	00 26                	add    %ah,(%rsi)
  404df3:	35 2c d8 0a 0e       	xor    $0xe0ad82c,%eax
  404df8:	1e                   	(bad)  
  404df9:	00 26                	add    %ah,(%rsi)
  404dfb:	36                   	ss
  404dfc:	2c 58                	sub    $0x58,%al
  404dfe:	0a 0e                	or     (%rsi),%cl
  404e00:	78 00                	js     404e02 <fatbinData+0x95a>
  404e02:	26                   	es
  404e03:	37                   	(bad)  
  404e04:	2c 93                	sub    $0x93,%al
  404e06:	0a 0b                	or     (%rbx),%cl
  404e08:	25 01 03 69 02       	and    $0x2690301,%eax
  404e0d:	0d ea 01 03 6a       	or     $0x6a0301ea,%eax
  404e12:	02 1b                	add    (%rbx),%bl
  404e14:	31 6b 02             	xor    %ebp,0x2(%rbx)
  404e17:	14 33                	adc    $0x33,%al
  404e19:	25 03 0c 8a 04       	and    $0x48a0c03,%eax
  404e1e:	04 4c                	add    $0x4c,%al
  404e20:	04 0b                	add    $0xb,%al
  404e22:	72 02                	jb     404e26 <fatbinData+0x97e>
  404e24:	14 33                	adc    $0x33,%al
  404e26:	a3 04 0b 58 01 14 33 	movabs %eax,0x4fa331401580b04
  404e2d:	fa 04 
  404e2f:	19 32                	sbb    %esi,(%rdx)
  404e31:	40 0e                	rex (bad) 
  404e33:	12 37                	adc    (%rdi),%dh
  404e35:	36                   	ss
  404e36:	06                   	(bad)  
  404e37:	33 2c 20             	xor    (%rax,%riz,1),%ebp
  404e3a:	34 32                	xor    $0x32,%al
  404e3c:	07                   	(bad)  
  404e3d:	03 c2                	add    %edx,%eax
  404e3f:	0f 11 31             	movups %xmm6,(%rcx)
  404e42:	ca 05 f0             	lret   $0xf005
  404e45:	02 40 25             	add    0x25(%rax),%al
  404e48:	70 31                	jo     404e7b <fatbinData+0x9d3>
  404e4a:	20 62 72             	and    %ah,0x72(%rdx)
  404e4d:	61                   	(bad)  
  404e4e:	20 42 42             	and    %al,0x42(%rdx)
  404e51:	30 5f 32             	xor    %bl,0x32(%rdi)
  404e54:	3b 0a                	cmp    (%rdx),%ecx
  404e56:	0a 08                	or     (%rax),%cl
  404e58:	00 28                	add    %ch,(%rax)
  404e5a:	31 3a                	xor    %edi,(%rdx)
  404e5c:	41 00 00             	add    %al,(%r8)
  404e5f:	d4                   	(bad)  
  404e60:	10 05 48 00 29 31    	adc    %al,0x31290048(%rip)        # 31694eae <_end+0x3108baf6>
  404e66:	32 8e 00 13 34 bc    	xor    -0x43cbed00(%rsi),%cl
  404e6c:	00 0a                	add    %cl,(%rdx)
  404e6e:	73 00                	jae    404e70 <fatbinData+0x9c8>
  404e70:	01 3e                	add    %edi,(%rsi)
  404e72:	0b 04 08             	or     (%rax,%rcx,1),%eax
  404e75:	00 00                	add    %al,(%rax)
  404e77:	e7 01                	out    %eax,$0x1
  404e79:	60                   	(bad)  
  404e7a:	65                   	gs
  404e7b:	74 70                	je     404eed <fatbinData+0xa45>
  404e7d:	2e                   	cs
  404e7e:	6c                   	insb   (%dx),%es:(%rdi)
  404e7f:	74 8e                	je     404e0f <fatbinData+0x967>
  404e81:	04 47                	add    $0x47,%al
  404e83:	09 25 70 32 1c 00    	or     %esp,0x1c3270(%rip)        # 5c80f9 <__FRAME_END__+0x1bfc01>
  404e89:	11 38                	adc    %edi,(%rax)
  404e8b:	82                   	(bad)  
  404e8c:	00 15 32 82 00 13    	add    %dl,0x13008232(%rip)        # 1340d0c4 <_end+0x12e03d0c>
  404e92:	31 82 00 29 32 3a    	xor    %eax,0x3a322900(%rdx)
  404e98:	a1 07 12 36 a1 07 0f 	movabs 0x79f0f07a1361207,%eax
  404e9f:	9f 07 
  404ea1:	03 02                	add    (%rdx),%eax
  404ea3:	99                   	cltd   
  404ea4:	00 2b                	add    %ch,(%rbx)
  404ea6:	34 36                	xor    $0x36,%al
  404ea8:	c1 0b 1f             	rorl   $0x1f,(%rbx)
  404eab:	35 c1 0b 42 2f       	xor    $0x2f420bc1,%eax
  404eb0:	34 37                	xor    $0x37,%al
  404eb2:	c1 0b 21             	rorl   $0x21,(%rbx)
  404eb5:	1f                   	(bad)  
  404eb6:	35 b3 07 47 2f       	xor    $0x2f4707b3,%eax
  404ebb:	32 30                	xor    (%rax),%dh
  404ebd:	b3 07                	mov    $0x7,%bl
  404ebf:	02 22                	add    (%rdx),%ah
  404ec1:	6c                   	insb   (%dx),%es:(%rdi)
  404ec2:	64                   	fs
  404ec3:	a9 02 00 e4 27       	test   $0x27e40002,%eax
  404ec8:	05 74 05 25 3b       	add    $0x3b250574,%eax
  404ecd:	0a 17                	or     (%rdi),%dl
  404ecf:	00 26                	add    %ah,(%rsi)
  404ed1:	32 2c a3             	xor    (%rbx,%riz,4),%ch
  404ed4:	05 53 3b 0a 73       	add    $0x730a3b53,%eax
  404ed9:	68 6c b2 11 33       	pushq  $0x3311b26c
  404ede:	32 33                	xor    (%rbx),%dh
  404ee0:	2c 1f                	sub    $0x1f,%al
  404ee2:	00 54 38 3b          	add    %dl,0x3b(%rax,%rdi,1)
  404ee6:	0a 6f 72             	or     0x72(%rdi),%ch
  404ee9:	16                   	(bad)  
  404eea:	00 26                	add    %ah,(%rsi)
  404eec:	34 2c                	xor    $0x2c,%al
  404eee:	1c 00                	sbb    $0x0,%al
  404ef0:	19 31                	sbb    %esi,(%rcx)
  404ef2:	30 00                	xor    %al,(%rax)
  404ef4:	23 35 2c 20 00 64    	and    0x6400202c(%rip),%esi        # 64406f26 <_end+0x63dfdb6e>
  404efa:	38 3b                	cmp    %bh,(%rbx)
  404efc:	0a 61 6e             	or     0x6e(%rcx),%ah
  404eff:	64                   	fs
  404f00:	17                   	(bad)  
  404f01:	00 23                	add    %ah,(%rbx)
  404f03:	36                   	ss
  404f04:	2c 1d                	sub    $0x1d,%al
  404f06:	00 40 36             	add    %al,0x36(%rax)
  404f09:	35 32 38 54 01       	xor    $0x1543832,%eax
  404f0e:	23 68 72             	and    0x72(%rax),%ebp
  404f11:	9c                   	pushfq 
  404f12:	04 27                	add    $0x27,%al
  404f14:	32 37                	xor    (%rdi),%dh
  404f16:	32 00                	xor    (%rax),%al
  404f18:	06                   	(bad)  
  404f19:	62                   	(bad)  
  404f1a:	00 26                	add    %ah,(%rsi)
  404f1c:	38 2c 37             	cmp    %ch,(%rdi,%rsi,1)
  404f1f:	00 17                	add    %dl,(%rdi)
  404f21:	37                   	(bad)  
  404f22:	a9 00 26 39 2c       	test   $0x2c392600,%eax
  404f27:	92                   	xchg   %eax,%edx
  404f28:	05 06 17 00 00       	add    $0x1706,%eax
  404f2d:	d0 10                	rclb   (%rax)
  404f2f:	05 1d 06 07 17       	add    $0x1707061d,%eax
  404f34:	00 06                	add    %al,(%rsi)
  404f36:	ee                   	out    %al,(%dx)
  404f37:	00 19                	add    %bl,(%rcx)
  404f39:	37                   	(bad)  
  404f3a:	d7                   	xlat   %ds:(%rbx)
  404f3b:	00 00                	add    %al,(%rax)
  404f3d:	d5                   	(bad)  
  404f3e:	0f 02 1f             	lar    (%rdi),%ebx
  404f41:	00 08                	add    %cl,(%rax)
  404f43:	75 00                	jne    404f45 <fatbinData+0xa9d>
  404f45:	01 1f                	add    %ebx,(%rdi)
  404f47:	0f 04                	(bad)  
  404f49:	1c 00                	sbb    $0x0,%al
  404f4b:	19 30                	sbb    %esi,(%rax)
  404f4d:	30 00                	xor    %al,(%rax)
  404f4f:	23 34 2c             	and    (%rsp,%rbp,1),%esi
  404f52:	20 00                	and    %al,(%rax)
  404f54:	09 d7                	or     %edx,%edi
  404f56:	00 00                	add    %al,(%rax)
  404f58:	4c 0e                	rex.WR (bad) 
  404f5a:	02 1d 00 0d d7 00    	add    0xd70d00(%rip),%bl        # 1175c60 <_end+0xb6c8a8>
  404f60:	27                   	(bad)  
  404f61:	33 36                	xor    (%rsi),%esi
  404f63:	32 00                	xor    (%rax),%al
  404f65:	05 90 00 26 37       	add    $0x37260090,%eax
  404f6a:	2c 95                	sub    $0x95,%al
  404f6c:	06                   	(bad)  
  404f6d:	07                   	(bad)  
  404f6e:	17                   	(bad)  
  404f6f:	00 26                	add    %ah,(%rsi)
  404f71:	38 2c c4             	cmp    %ch,(%rsp,%rax,8)
  404f74:	06                   	(bad)  
  404f75:	09 77 00             	or     %esi,0x0(%rdi)
  404f78:	23 39                	and    (%rcx),%edi
  404f7a:	2c 1f                	sub    $0x1f,%al
  404f7c:	00 08                	add    %cl,(%rax)
  404f7e:	a7                   	cmpsl  %es:(%rdi),%ds:(%rsi)
  404f7f:	00 02                	add    %al,(%rdx)
  404f81:	a5                   	movsl  %ds:(%rsi),%es:(%rdi)
  404f82:	0c 03                	or     $0x3,%al
  404f84:	1c 00                	sbb    $0x0,%al
  404f86:	18 37                	sbb    %dh,(%rdi)
  404f88:	30 00                	xor    %al,(%rax)
  404f8a:	00 ba 0a 02 20 00    	add    %bh,0x20020a(%rdx)
  404f90:	09 a7 00 02 b2 0a    	or     %esp,0xab20200(%rdi)
  404f96:	00 1d 00 0d a7 00    	add    %bl,0xa70d00(%rip)        # e75c9c <_end+0x86c8e4>
  404f9c:	27                   	(bad)  
  404f9d:	34 33                	xor    $0x33,%al
  404f9f:	32 00                	xor    (%rax),%al
  404fa1:	06                   	(bad)  
  404fa2:	62                   	(bad)  
  404fa3:	00 26                	add    %ah,(%rsi)
  404fa5:	34 2c                	xor    $0x2c,%al
  404fa7:	37                   	(bad)  
  404fa8:	00 16                	add    %dl,(%rsi)
  404faa:	33 a9 00 00 fb 03    	xor    0x3fb0000(%rcx),%ebp
  404fb0:	05 e7 06 0f ee       	add    $0xee0f06e7,%eax
  404fb5:	0b 00                	or     (%rax),%eax
  404fb7:	02 fe                	add    %dh,%bh
  404fb9:	03 2a                	add    (%rdx),%ebp
  404fbb:	32 38                	xor    (%rax),%bh
  404fbd:	fe 03                	incb   (%rbx)
  404fbf:	02 54 0d 14          	add    0x14(%rbp,%rcx,1),%dl
  404fc3:	35 2b 07 0b 33       	xor    $0x330b072b,%eax
  404fc8:	00 03                	add    %al,(%rbx)
  404fca:	23 09                	and    (%rcx),%ecx
  404fcc:	28 32                	sub    %dh,(%rdx)
  404fce:	39 80 00 26 36 2c    	cmp    %eax,0x2c362600(%rax)
  404fd4:	5e                   	pop    %rsi
  404fd5:	01 1f                	add    %ebx,(%rdi)
  404fd7:	36                   	ss
  404fd8:	c7                   	(bad)  
  404fd9:	0b 03                	or     (%rbx),%eax
  404fdb:	14 35                	adc    $0x35,%al
  404fdd:	13 0c 02             	adc    (%rdx,%rax,1),%ecx
  404fe0:	2d 00 3f 34 35       	sub    $0x35343f00,%eax
  404fe5:	7d 5e                	jge    405045 <fatbinData+0xb9d>
  404fe7:	00 02                	add    %al,(%rdx)
  404fe9:	03 2d 08 29 34 34    	add    0x34342908(%rip),%ebp        # 347478f7 <_end+0x3413e53f>
  404fef:	0f 04                	(bad)  
  404ff1:	14 35                	adc    $0x35,%al
  404ff3:	e3 0b                	jrcxz  405000 <fatbinData+0xb58>
  404ff5:	0f 43 04 02          	cmovae (%rdx,%rax,1),%eax
  404ff9:	22 35 32 b2 00 0f    	and    0xf00b232(%rip),%dh        # f410231 <_end+0xee06e79>
  404fff:	e2 0b                	loop   40500c <fatbinData+0xb64>
  405001:	40 1f                	rex (bad) 
  405003:	35 e2 0b 20 2f       	xor    $0x2f200be2,%eax
  405008:	34 33                	xor    $0x33,%al
  40500a:	2f                   	(bad)  
  40500b:	04 47                	add    $0x47,%al
  40500d:	2f                   	(bad)  
  40500e:	34 37                	xor    $0x37,%al
  405010:	2f                   	(bad)  
  405011:	04 0a                	add    $0xa,%al
  405013:	16                   	(bad)  
  405014:	34 9a                	xor    $0x9a,%al
  405016:	02 08                	add    (%rax),%cl
  405018:	6f                   	outsl  %ds:(%rsi),(%dx)
  405019:	03 36                	add    (%rsi),%esi
  40501b:	34 39                	xor    $0x39,%al
  40501d:	2c 98                	sub    $0x98,%al
  40501f:	08 06                	or     %al,(%rsi)
  405021:	17                   	(bad)  
  405022:	00 00                	add    %al,(%rax)
  405024:	f3 20 05 dd 08 07 17 	repz and %al,0x170708dd(%rip)        # 17475908 <_end+0x16e6c550>
  40502b:	00 05 86 03 18 33    	add    %al,0x33180386(%rip)        # 335853b7 <_end+0x32f7bfff>
  405031:	f6 02 00             	testb  $0x0,(%rdx)
  405034:	66 01 05 02 08 07 17 	add    %ax,0x17070802(%rip)        # 1747583d <_end+0x16e6c485>
  40503b:	00 26                	add    %ah,(%rsi)
  40503d:	33 2c 02             	xor    (%rdx,%rax,1),%ebp
  405040:	08 07                	or     %al,(%rdi)
  405042:	17                   	(bad)  
  405043:	00 26                	add    %ah,(%rsi)
  405045:	34 2c                	xor    $0x2c,%al
  405047:	5e                   	pop    %rsi
  405048:	08 07                	or     %al,(%rdi)
  40504a:	17                   	(bad)  
  40504b:	00 05 92 02 18 32    	add    %al,0x32180292(%rip)        # 325852e3 <_end+0x31f7bf2b>
  405051:	d0 04 36             	rolb   (%rsi,%rsi,1)
  405054:	35 36 2c e7 09       	xor    $0x9e72c36,%eax
  405059:	07                   	(bad)  
  40505a:	17                   	(bad)  
  40505b:	00 06                	add    %al,(%rsi)
  40505d:	80 03 1f             	addb   $0x1f,(%rbx)
  405060:	36 c0 02 07          	rolb   $0x7,%ss:(%rdx)
  405064:	2f                   	(bad)  
  405065:	34 38                	xor    $0x38,%al
  405067:	a8 02                	test   $0x2,%al
  405069:	08 2f                	or     %ch,(%rdi)
  40506b:	34 39                	xor    $0x39,%al
  40506d:	8f 02                	popq   (%rdx)
  40506f:	0c 11                	or     $0x11,%al
  405071:	35 84 03 3f 35       	xor    $0x353f0384,%eax
  405076:	30 7d 28             	xor    %bh,0x28(%rbp)
  405079:	00 05 04 7d 0e 21    	add    %al,0x210e7d04(%rip)        # 214ecd83 <_end+0x20ee39cb>
  40507f:	35 33 29 00 1f       	xor    $0x1f002933,%eax
  405084:	32 29                	xor    (%rcx),%ch
  405086:	00 06                	add    %al,(%rsi)
  405088:	23 32                	and    (%rdx),%esi
  40508a:	34 29                	xor    $0x29,%al
  40508c:	00 01                	add    %al,(%rcx)
  40508e:	08 03                	or     %al,(%rbx)
  405090:	2f                   	(bad)  
  405091:	35 34 29 00 06       	xor    $0x6002934,%eax
  405096:	23 33                	and    (%rbx),%esi
  405098:	32 29                	xor    (%rcx),%ch
  40509a:	00 01                	add    %al,(%rcx)
  40509c:	4b 05 2a 35 36 cf    	rex.WXB add $0xffffffffcf36352a,%rax
  4050a2:	0e                   	(bad)  
  4050a3:	23 35 33 ec 15 0f    	and    0xf15ec33(%rip),%esi        # f563cdc <_end+0xef5a924>
  4050a9:	ec                   	in     (%dx),%al
  4050aa:	02 03                	add    (%rbx),%al
  4050ac:	02 9b 07 2f 35 33    	add    0x33352f07(%rbx),%bl
  4050b2:	ec                   	in     (%dx),%al
  4050b3:	02 40 1f             	add    0x1f(%rax),%al
  4050b6:	34 ec                	xor    $0xec,%al
  4050b8:	02 7b 2f             	add    0x2f(%rbx),%bh
  4050bb:	35 38 ec 02 0a       	xor    $0xa02ec38,%eax
  4050c0:	15 35 d5 02 18       	adc    $0x1802d535,%eax
  4050c5:	33 ec                	xor    %esp,%ebp
  4050c7:	02 16                	add    (%rsi),%dl
  4050c9:	36                   	ss
  4050ca:	d5                   	(bad)  
  4050cb:	02 08                	add    (%rax),%cl
  4050cd:	ec                   	in     (%dx),%al
  4050ce:	02 00                	add    (%rax),%al
  4050d0:	02 27                	add    (%rdi),%ah
  4050d2:	05 4a 0b 07 17       	add    $0x17070b4a,%eax
  4050d7:	00 05 d5 02 18 34    	add    %al,0x341802d5(%rip)        # 345853b2 <_end+0x33f7bffa>
  4050dd:	ec                   	in     (%dx),%al
  4050de:	02 15 36 d5 02 18    	add    0x1802d536(%rip),%dl        # 1843261a <_end+0x17e29262>
  4050e4:	33 ec                	xor    %esp,%ebp
  4050e6:	02 15 36 d5 02 18    	add    0x1802d536(%rip),%dl        # 18432622 <_end+0x17e2926a>
  4050ec:	33 ec                	xor    %esp,%ebp
  4050ee:	02 00                	add    (%rax),%al
  4050f0:	c9                   	leaveq 
  4050f1:	1c 05                	sbb    $0x5,%al
  4050f3:	0c 0a                	or     $0xa,%al
  4050f5:	07                   	(bad)  
  4050f6:	17                   	(bad)  
  4050f7:	00 05 d5 02 18 33    	add    %al,0x331802d5(%rip)        # 335853d2 <_end+0x32f7c01a>
  4050fd:	ec                   	in     (%dx),%al
  4050fe:	02 00                	add    (%rax),%al
  405100:	50                   	push   %rax
  405101:	1a 05 6a 0a 07 17    	sbb    0x17070a6a(%rip),%al        # 17475b71 <_end+0x16e6c7b9>
  405107:	00 05 bb 03 1f 33    	add    %al,0x331f03bb(%rip)        # 335f54c8 <_end+0x32fec110>
  40510d:	ec                   	in     (%dx),%al
  40510e:	02 08                	add    (%rax),%cl
  405110:	2f                   	(bad)  
  405111:	35 39 ec 02 08       	xor    $0x802ec39,%eax
  405116:	2f                   	(bad)  
  405117:	36                   	ss
  405118:	30 ec                	xor    %ch,%ah
  40511a:	02 0c 21             	add    (%rcx,%riz,1),%cl
  40511d:	36 32 27             	xor    %ss:(%rdi),%ah
  405120:	00 1f                	add    %bl,(%rdi)
  405122:	31 ec                	xor    %ebp,%esp
  405124:	02 0e                	add    (%rsi),%cl
  405126:	21 36                	and    %esi,(%rsi)
  405128:	34 29                	xor    $0x29,%al
  40512a:	00 1f                	add    %bl,(%rdi)
  40512c:	33 ec                	xor    %esp,%ebp
  40512e:	02 0e                	add    (%rsi),%cl
  405130:	21 36                	and    %esi,(%rsi)
  405132:	36 29 00             	sub    %eax,%ss:(%rax)
  405135:	1f                   	(bad)  
  405136:	35 ec 02 0e 21       	xor    $0x210e02ec,%eax
  40513b:	36 38 29             	cmp    %ch,%ss:(%rcx)
  40513e:	00 0b                	add    %cl,(%rbx)
  405140:	df 13                	fist   (%rbx)
  405142:	13 35 dd 15 1f 33    	adc    0x331f15dd(%rip),%esi        # 335f6725 <_end+0x32fed36d>
  405148:	ec                   	in     (%dx),%al
  405149:	02 03                	add    (%rbx),%al
  40514b:	02 dc                	add    %ah,%bl
  40514d:	15 2f 35 35 ec       	adc    $0xec35352f,%eax
  405152:	02 40 1f             	add    0x1f(%rax),%al
  405155:	36                   	ss
  405156:	ec                   	in     (%dx),%al
  405157:	02 7b 2f             	add    0x2f(%rbx),%bh
  40515a:	36                   	ss
  40515b:	39 d8                	cmp    %ebx,%eax
  40515d:	18 0d 22 35 37 2b    	sbb    %cl,0x2b373522(%rip)        # 2b778685 <_end+0x2b16f2cd>
  405163:	01 1f                	add    %ebx,(%rdi)
  405165:	34 2b                	xor    $0x2b,%al
  405167:	01 03                	add    %eax,(%rbx)
  405169:	02 c5                	add    %ch,%al
  40516b:	15 2f 35 37 2b       	adc    $0x2b37352f,%eax
  405170:	01 40 1f             	add    %eax,0x1f(%rax)
  405173:	38 33                	cmp    %dh,(%rbx)
  405175:	0b 7c 1f 37          	or     0x37(%rdi,%rbx,1),%edi
  405179:	33 0b                	xor    (%rbx),%ecx
  40517b:	0b 16                	or     (%rsi),%edx
  40517d:	37                   	(bad)  
  40517e:	45 0a 08             	or     (%r8),%r9b
  405181:	a5                   	movsl  %ds:(%rsi),%es:(%rdi)
  405182:	03 16                	add    (%rsi),%edx
  405184:	37                   	(bad)  
  405185:	33 0b                	xor    (%rbx),%ecx
  405187:	19 33                	sbb    %esi,(%rbx)
  405189:	b5 09                	mov    $0x9,%ch
  40518b:	00 e4                	add    %ah,%ah
  40518d:	1d 02 1f 00 08       	sbb    $0x8001f02,%eax
  405192:	33 0b                	xor    (%rbx),%ecx
  405194:	00 d4                	add    %dl,%ah
  405196:	25 05 1c 00 18       	and    $0x18001c05,%eax
  40519b:	31 9e 09 00 f2 25    	xor    %ebx,0x25f20009(%rsi)
  4051a1:	02 20                	add    (%rax),%ah
  4051a3:	00 02                	add    %al,(%rdx)
  4051a5:	e5 18                	in     $0x18,%eax
  4051a7:	06                   	(bad)  
  4051a8:	49 00 23             	rex.WB add %spl,(%r11)
  4051ab:	36                   	ss
  4051ac:	2c 1f                	sub    $0x1f,%al
  4051ae:	00 18                	add    %bl,(%rax)
  4051b0:	38 b3 09 24 37 37    	cmp    %dh,0x37372409(%rbx)
  4051b6:	30 00                	xor    %al,(%rax)
  4051b8:	09 60 00             	or     %esp,0x0(%rax)
  4051bb:	26 38 2c 33          	cmp    %ch,%es:(%rbx,%rsi,1)
  4051bf:	00 13                	add    %dl,(%rbx)
  4051c1:	37                   	(bad)  
  4051c2:	64                   	fs
  4051c3:	0d 40 65 71 2e       	or     $0x2e716540,%eax
  4051c8:	73 e3                	jae    4051ad <fatbinData+0xd05>
  4051ca:	00 33                	add    %dh,(%rbx)
  4051cc:	70 33                	jo     405201 <fatbinData+0xd59>
  4051ce:	2c 23                	sub    $0x23,%al
  4051d0:	00 3b                	add    %bh,(%rbx)
  4051d2:	32 30                	xor    (%rax),%dh
  4051d4:	34 9e                	xor    $0x9e,%al
  4051d6:	09 24 32             	or     %esp,(%rdx,%rsi,1)
  4051d9:	2c b5                	sub    $0xb5,%al
  4051db:	17                   	(bad)  
  4051dc:	11 34 7d 0d 15 33 7d 	adc    %esi,0x7d33150d(,%rdi,2)
  4051e3:	0d 61 35 3b 0a       	or     $0xa3b3561,%eax
  4051e8:	62 72                	(bad)  
  4051ea:	61                   	(bad)  
  4051eb:	5d                   	pop    %rbp
  4051ec:	01 00                	add    %eax,(%rax)
  4051ee:	0f 00 13             	lldt   (%rbx)
  4051f1:	33 8c 0d 19 35 0e 0e 	xor    0xe0e3519(%rbp,%rcx,1),%ecx
  4051f8:	24 37                	and    $0x37,%al
  4051fa:	36                   	ss
  4051fb:	50                   	push   %rax
  4051fc:	0e                   	(bad)  
  4051fd:	26 31 34 1d 01 39 31 	xor    %esi,%es:0x35313901(,%rbx,1)
  405204:	35 
  405205:	39 68 0c             	cmp    %ebp,0xc(%rax)
  405208:	06                   	(bad)  
  405209:	ee                   	out    %al,(%dx)
  40520a:	00 10                	add    %dl,(%rax)
  40520c:	31 50 05             	xor    %edx,0x5(%rax)
  40520f:	03 21                	add    (%rcx),%esp
  405211:	00 00                	add    %al,(%rax)
  405213:	e2 0e                	loop   405223 <fatbinData+0xd7b>
  405215:	83 6d 75 6c          	subl   $0x6c,0x75(%rbp)
  405219:	2e 77 69             	ja,pn  405285 <fatbinData+0xddd>
  40521c:	64 65 dd 00          	fs fldl %fs:%gs:(%rax)
  405220:	12 64 de 00          	adc    0x0(%rsi,%rbx,8),%ah
  405224:	01 26                	add    %esp,(%rsi)
  405226:	00 1a                	add    %bl,(%rdx)
  405228:	34 a9                	xor    $0xa9,%al
  40522a:	00 27                	add    %ah,(%rdi)
  40522c:	33 2c 70             	xor    (%rax,%rsi,2),%ebp
  40522f:	00 27                	add    %ah,(%rdi)
  405231:	37                   	(bad)  
  405232:	37                   	(bad)  
  405233:	6d                   	insl   (%dx),%es:(%rdi)
  405234:	00 29                	add    %ch,(%rcx)
  405236:	36                   	ss
  405237:	31 d7                	xor    %edx,%edi
  405239:	07                   	(bad)  
  40523a:	06                   	(bad)  
  40523b:	18 00                	sbb    %al,(%rax)
  40523d:	1f                   	(bad)  
  40523e:	32 06                	xor    (%rsi),%al
  405240:	08 02                	or     %al,(%rdx)
  405242:	3f                   	(bad)  
  405243:	31 36                	xor    %esi,(%rsi)
  405245:	33 bf 08 02 39 31    	xor    0x31390208(%rdi),%edi
  40524b:	36                   	ss
  40524c:	34 ee                	xor    $0xee,%al
  40524e:	08 0f                	or     %cl,(%rdi)
  405250:	fb                   	sti    
  405251:	16                   	(bad)  
  405252:	06                   	(bad)  
  405253:	2f                   	(bad)  
  405254:	36 31 69 1d          	xor    %ebp,%ss:0x1d(%rcx)
  405258:	01 03                	add    %eax,(%rbx)
  40525a:	b0 10                	mov    $0x10,%al
  40525c:	2f                   	(bad)  
  40525d:	36 32 bb 04 03 33 31 	xor    %ss:0x31330304(%rbx),%bh
  405264:	32 2b                	xor    (%rbx),%ch
  405266:	e4 04                	in     $0x4,%al
  405268:	01 68 00             	add    %ebp,0x0(%rax)
  40526b:	01 87 00 0a bd 04    	add    %eax,0x4bd0a00(%rdi)
  405271:	22 37                	and    (%rdi),%dh
  405273:	38 92 03 0f 9b 18    	cmp    %dl,0x189b0f03(%rdx)
  405279:	03 22                	add    (%rdx),%esp
  40527b:	37                   	(bad)  
  40527c:	39 f9                	cmp    %edi,%ecx
  40527e:	00 1f                	add    %bl,(%rdi)
  405280:	38 92 03 3f 2f 37    	cmp    %dl,0x372f3f03(%rdx)
  405286:	39 77 16             	cmp    %esi,0x16(%rdi)
  405289:	7d 1f                	jge    4052aa <fatbinData+0xe02>
  40528b:	35 92 03 0a 39       	xor    $0x390a0392,%eax
  405290:	73 31                	jae    4052c3 <fatbinData+0xe1b>
  405292:	39 3b                	cmp    %edi,(%rbx)
  405294:	0a 05 ec 02 74 31    	or     0x317402ec(%rip),%al        # 31b45586 <_end+0x3153c1ce>
  40529a:	36 09 25 70 35 2c 23 	or     %esp,%ss:0x232c3570(%rip)        # 236c8811 <_end+0x230bf459>
  4052a1:	00 11                	add    %dl,(%rcx)
  4052a3:	36 d1 02             	roll   %ss:(%rdx)
  4052a6:	15 35 d1 02 00       	adc    $0x2d135,%eax
  4052ab:	cd 04                	int    $0x4
  4052ad:	01 2c 00             	add    %ebp,(%rax,%rax,1)
  4052b0:	23 6e 65             	and    0x65(%rsi),%ebp
  4052b3:	2c 00                	sub    $0x0,%al
  4052b5:	15 36 2c 00 21       	adc    $0x21002c36,%eax
  4052ba:	31 37                	xor    %esi,(%rdi)
  4052bc:	2d 00 15 36 2d       	sub    $0x2d361500,%eax
  4052c1:	00 13                	add    %dl,(%rbx)
  4052c3:	38 ef                	cmp    %ch,%bh
  4052c5:	02 21                	add    (%rcx),%ah
  4052c7:	37                   	(bad)  
  4052c8:	3a 21                	cmp    (%rcx),%ah
  4052ca:	02 01                	add    (%rcx),%al
  4052cc:	f1                   	icebp  
  4052cd:	13 14 31             	adc    (%rcx,%rsi,1),%edx
  4052d0:	83 07 2b             	addl   $0x2b,(%rdi)
  4052d3:	31 33                	xor    %esi,(%rbx)
  4052d5:	d5                   	(bad)  
  4052d6:	02 03                	add    (%rbx),%al
  4052d8:	b6 02                	mov    $0x2,%dh
  4052da:	1d 36 c5 03 12       	sbb    $0x1203c536,%eax
  4052df:	31 a9 06 01 22 00    	xor    %ebp,0x220106(%rcx)
  4052e5:	09 c7                	or     %eax,%edi
  4052e7:	03 35 31 36 39 34    	add    0x34393631(%rip),%esi        # 3479891e <_end+0x3418f566>
  4052ed:	00 08                	add    %cl,(%rax)
  4052ef:	c9                   	leaveq 
  4052f0:	03 10                	add    (%rax),%edx
  4052f2:	31 8f 04 07 38 00    	xor    %ecx,0x380704(%rdi)
  4052f8:	1f                   	(bad)  
  4052f9:	39 89 02 08 29 37    	cmp    %ecx,0x37290802(%rcx)
  4052ff:	30 41 02             	xor    %al,0x2(%rcx)
  405302:	13 38                	adc    (%rax),%edi
  405304:	d6                   	(bad)  
  405305:	0c 0f                	or     $0xf,%al
  405307:	b8 18 03 12 38       	mov    $0x38120318,%eax
  40530c:	ea                   	(bad)  
  40530d:	03 1f                	add    (%rdi),%ebx
  40530f:	38 d6                	cmp    %dl,%dh
  405311:	0c 40                	or     $0x40,%al
  405313:	1f                   	(bad)  
  405314:	38 b8 18 7d 2f 37    	cmp    %bh,0x372f7d18(%rax)
  40531a:	31 41 02             	xor    %eax,0x2(%rcx)
  40531d:	01 01                	add    %eax,(%rcx)
  40531f:	d0 01                	rolb   (%rcx)
  405321:	19 38                	sbb    %edi,(%rax)
  405323:	4b 12 22             	rex.WXB adc (%r10),%spl
  405326:	38 34 33             	cmp    %dh,(%rbx,%rsi,1)
  405329:	01 0f                	add    %ecx,(%rdi)
  40532b:	0d 1e 03 22 38       	or     $0x3822031e,%eax
  405330:	35 df 00 0a 3d       	xor    $0x3d0a00df,%eax
  405335:	0e                   	(bad)  
  405336:	2f                   	(bad)  
  405337:	38 36                	cmp    %dh,(%rsi)
  405339:	4b 12 42 2f          	rex.WXB adc 0x2f(%r10),%al
  40533d:	38 35 45 01 1f 2f    	cmp    %dh,0x2f1f0145(%rip)        # 2f5f5488 <_end+0x2efec0d0>
  405343:	38 36                	cmp    %dh,(%rsi)
  405345:	45 01 49 1f          	add    %r9d,0x1f(%r9)
  405349:	32 86 03 0a 3f 31    	xor    0x313f0a03(%rsi),%al
  40534f:	37                   	(bad)  
  405350:	33 d8                	xor    %eax,%ebx
  405352:	0d 02 3f 31 37       	or     $0x37313f02,%eax
  405357:	34 07                	xor    $0x7,%al
  405359:	0e                   	(bad)  
  40535a:	02 3f                	add    (%rdi),%bh
  40535c:	31 37                	xor    %esi,(%rdi)
  40535e:	35 05 0b 02 39       	xor    $0x39020b05,%eax
  405363:	31 37                	xor    %esi,(%rdi)
  405365:	36                   	ss
  405366:	06                   	(bad)  
  405367:	0b 0f                	or     (%rdi),%ecx
  405369:	ee                   	out    %al,(%dx)
  40536a:	02 07                	add    (%rdi),%al
  40536c:	1f                   	(bad)  
  40536d:	33 77 05             	xor    0x5(%rdi),%esi
  405370:	08 2f                	or     %ch,(%rdi)
  405372:	37                   	(bad)  
  405373:	34 77                	xor    $0x77,%al
  405375:	05 0e 02 3b 06       	add    $0x63b020e,%eax
  40537a:	4f 31 37             	rex.WRXB xor %r14,(%r15)
  40537d:	35 7d 43 05 d0       	xor    $0xd005437d,%eax
  405382:	2f                   	(bad)  
  405383:	37                   	(bad)  
  405384:	37                   	(bad)  
  405385:	43 05 0b 2f 32 30    	rex.XB add $0x30322f0b,%eax
  40538b:	43 05 08 24 37 2c    	rex.XB add $0x2c372408,%eax
  405391:	23 00                	and    (%rax),%eax
  405393:	02 43 05             	add    0x5(%rbx),%al
  405396:	16                   	(bad)  
  405397:	37                   	(bad)  
  405398:	91                   	xchg   %eax,%ecx
  405399:	15 1d 30 44 05       	adc    $0x544301d,%eax
  40539e:	15 38 2d 00 03       	adc    $0x3002d38,%eax
  4053a3:	44 05 16 38 2e 00    	rex.R add $0x2e3816,%eax
  4053a9:	04 c0                	add    $0xc0,%al
  4053ab:	15 28 31 30 46       	adc    $0x46303128,%eax
  4053b0:	05 24 37 38 46       	add    $0x46383724,%eax
  4053b5:	05 2a 2b 32 48       	add    $0x48322b2a,%eax
  4053ba:	05 02 e5 06 01       	add    $0x106e502,%eax
  4053bf:	21 00                	and    %eax,(%rax)
  4053c1:	0c 48                	or     $0x48,%al
  4053c3:	05 00 05 31 03       	add    $0x3310500,%eax
  4053c8:	22 00                	and    (%rax),%al
  4053ca:	0a 48 05             	or     0x5(%rax),%cl
  4053cd:	25 38 31 34 00       	and    $0x343138,%eax
  4053d2:	09 48 05             	or     %ecx,0x5(%rax)
  4053d5:	02 f0                	add    %al,%dh
  4053d7:	04 04                	add    $0x4,%al
  4053d9:	38 00                	cmp    %al,(%rax)
  4053db:	2f                   	(bad)  
  4053dc:	38 31                	cmp    %dh,(%rcx)
  4053de:	5a                   	pop    %rdx
  4053df:	02 08                	add    (%rax),%cl
  4053e1:	29 38                	sub    %edi,(%rax)
  4053e3:	32 e1                	xor    %cl,%ah
  4053e5:	03 2f                	add    (%rdi),%ebp
  4053e7:	39 30                	cmp    %esi,(%rax)
  4053e9:	48 05 09 12 39 1d    	add    $0x1d391209,%rax
  4053ef:	25 1f 39 03 04       	and    $0x403391f,%eax
  4053f4:	40 2f                	rex (bad) 
  4053f6:	39 31                	cmp    %esi,(%rcx)
  4053f8:	46 02 7c 2f 38       	add    0x38(%rdi,%r13,1),%r15b
  4053fd:	33 48 05             	xor    0x5(%rax),%ecx
  405400:	06                   	(bad)  
  405401:	28 31                	sub    %dh,(%rcx)
  405403:	31 d3                	xor    %edx,%ebx
  405405:	01 29                	add    %ebp,(%rcx)
  405407:	38 34 98             	cmp    %dh,(%rax,%rbx,4)
  40540a:	15 07 d3 01 02       	adc    $0x201d307,%eax
  40540f:	44 05 01 21 00 0d    	rex.R add $0xd002101,%eax
  405415:	d3 01                	roll   %cl,(%rcx)
  405417:	24 36                	and    $0x36,%al
  405419:	2c 22                	sub    $0x22,%al
  40541b:	00 0b                	add    %cl,(%rbx)
  40541d:	d3 01                	roll   %cl,(%rcx)
  40541f:	15 37 34 00 0a       	adc    $0xa003437,%eax
  405424:	d3 01                	roll   %cl,(%rcx)
  405426:	28 38                	sub    %bh,(%rax)
  405428:	2c 38                	sub    $0x38,%al
  40542a:	00 1f                	add    %bl,(%rdi)
  40542c:	37                   	(bad)  
  40542d:	d3 01                	roll   %cl,(%rcx)
  40542f:	09 1a                	or     %ebx,(%rdx)
  405431:	38 d3                	cmp    %dl,%bl
  405433:	01 03                	add    %eax,(%rbx)
  405435:	05 11 2f 31 30       	add    $0x30312f11,%eax
  40543a:	d4                   	(bad)  
  40543b:	01 03                	add    %eax,(%rbx)
  40543d:	02 06                	add    (%rsi),%al
  40543f:	11 1f                	adc    %ebx,(%rdi)
  405441:	39 06                	cmp    %eax,(%rsi)
  405443:	11 40 2f             	adc    %eax,0x2f(%rax)
  405446:	39 34 d4             	cmp    %esi,(%rsp,%rdx,8)
  405449:	01 7d 1f             	add    %edi,0x1f(%rbp)
  40544c:	39 d7                	cmp    %edx,%edi
  40544e:	05 0b 29 39 30       	add    $0x3039290b,%eax
  405453:	81 13 0f 8f 05 06    	adcl   $0x6058f0f,(%rbx)
  405459:	2a 39                	sub    (%rcx),%bh
  40545b:	30 62 01             	xor    %ah,0x1(%rdx)
  40545e:	03 95 19 2f 31 31    	add    0x31312f19(%rbp),%edx
  405464:	62 01                	(bad)  
  405466:	03 02                	add    (%rdx),%eax
  405468:	97                   	xchg   %eax,%edi
  405469:	19 2f                	sbb    %ebp,(%rdi)
  40546b:	39 36                	cmp    %esi,(%rsi)
  40546d:	62 01                	(bad)  
  40546f:	40 1f                	rex (bad) 
  405471:	37                   	(bad)  
  405472:	62 01 7c 2f 39       	(bad)  {%k7}
  405477:	31 62 01             	xor    %esp,0x1(%rdx)
  40547a:	0b 0f                	or     (%rdi),%ecx
  40547c:	7a 05                	jp     405483 <fatbinData+0xfdb>
  40547e:	03 01                	add    (%rcx),%eax
  405480:	a9 0d 02 00 05       	test   $0x500020d,%eax
  405485:	04 78                	add    $0x78,%al
  405487:	05 16 39 4a 05       	add    $0x54a3916,%eax
  40548c:	1a 34 8d 0d 15 31 9c 	sbb    -0x63ceeaf3(,%rcx,4),%dh
  405493:	1b 19                	sbb    (%rcx),%ebx
  405495:	34 d0                	xor    $0xd0,%al
  405497:	08 24 31             	or     %ah,(%rcx,%rsi,1)
  40549a:	30 da                	xor    %bl,%dl
  40549c:	16                   	(bad)  
  40549d:	0f ef 13             	pxor   (%rbx),%mm2
  4054a0:	03 23                	add    (%rbx),%esp
  4054a2:	31 30                	xor    %esi,(%rax)
  4054a4:	6f                   	outsl  %ds:(%rsi),(%dx)
  4054a5:	1b 1f                	sbb    (%rdi),%ebx
  4054a7:	30 07                	xor    %al,(%rdi)
  4054a9:	0a 40 3f             	or     0x3f(%rax),%al
  4054ac:	31 30                	xor    %esi,(%rax)
  4054ae:	32 c3                	xor    %bl,%al
  4054b0:	08 7c 1f 39          	or     %bh,0x39(%rdi,%rbx,1)
  4054b4:	13 29                	adc    (%rcx),%ebp
  4054b6:	03 09                	add    (%rcx),%ecx
  4054b8:	4a 01 13             	rex.WX add %rdx,(%rbx)
  4054bb:	36 4a 01 26          	rex.WX add %rsp,%ss:(%rsi)
  4054bf:	33 3a                	xor    (%rdx),%edi
  4054c1:	dc 0f                	fmull  (%rdi)
  4054c3:	05 60 0c 08 50       	add    $0x50080c60,%eax
  4054c8:	0e                   	(bad)  
  4054c9:	15 38 19 03 08       	adc    $0x8031938,%eax
  4054ce:	4e 0e                	rex.WRX (bad) 
  4054d0:	15 38 cf 01 08       	adc    $0x801cf38,%eax
  4054d5:	4c 0e                	rex.WR (bad) 
  4054d7:	15 38 7b 0e 08       	adc    $0x80e7b38,%eax
  4054dc:	4c 14 01             	rex.WR adc $0x1,%al
  4054df:	4f 05 04 f0 21 07    	rex.WRXB add $0x721f004,%rax
  4054e5:	17                   	(bad)  
  4054e6:	00 06                	add    %al,(%rsi)
  4054e8:	3d 05 08 49 09       	cmp    $0x9490805,%eax
  4054ed:	16                   	(bad)  
  4054ee:	38 6e 19             	cmp    %ch,0x19(%rsi)
  4054f1:	08 16                	or     %dl,(%rsi)
  4054f3:	00 04 2e             	add    %al,(%rsi,%rbp,1)
  4054f6:	09 08                	or     %ecx,(%rax)
  4054f8:	14 00                	adc    $0x0,%al
  4054fa:	06                   	(bad)  
  4054fb:	03 14 08             	add    (%rax,%rcx,1),%edx
  4054fe:	16                   	(bad)  
  4054ff:	00 06                	add    %al,(%rsi)
  405501:	bd 17 08 16 00       	mov    $0x160817,%ebp
  405506:	05 dc 00 08 5c       	add    $0x5c0800dc,%eax
  40550b:	14 06                	adc    $0x6,%al
  40550d:	f5                   	cmc    
  40550e:	03 1f                	add    (%rdi),%ebx
  405510:	34 f4                	xor    $0xf4,%al
  405512:	03 08                	add    (%rax),%ecx
  405514:	2f                   	(bad)  
  405515:	37                   	(bad)  
  405516:	39 82 09 07 2f 38    	cmp    %eax,0x382f0709(%rdx)
  40551c:	30 81 09 0d 02 91    	xor    %al,-0x6efdf2f7(%rcx)
  405522:	07                   	(bad)  
  405523:	3f                   	(bad)  
  405524:	38 31                	cmp    %dh,(%rcx)
  405526:	7d 29                	jge    405551 <fatbinData+0x10a9>
  405528:	00 06                	add    %al,(%rsi)
  40552a:	23 31                	and    (%rcx),%esi
  40552c:	32 2a                	xor    (%rdx),%ch
  40552e:	00 01                	add    %al,(%rcx)
  405530:	8f 05 2f 38 33 2a    	popq   0x2a33382f(%rip)        # 2a738d65 <_end+0x2a12f9ad>
  405536:	00 07                	add    %al,(%rdi)
  405538:	23 32                	and    (%rdx),%esi
  40553a:	30 2a                	xor    %ch,(%rdx)
  40553c:	00 01                	add    %al,(%rcx)
  40553e:	0b 06                	or     (%rsi),%eax
  405540:	2f                   	(bad)  
  405541:	38 35 2a 00 08 03    	cmp    %dh,0x308002a(%rip)        # 3485571 <_end+0x2e7c1b9>
  405547:	ac                   	lods   %ds:(%rsi),%al
  405548:	14 02                	adc    $0x2,%al
  40554a:	3c 06                	cmp    $0x6,%al
  40554c:	2f                   	(bad)  
  40554d:	38 37                	cmp    %dh,(%rdi)
  40554f:	2a 00                	sub    (%rax),%al
  405551:	07                   	(bad)  
  405552:	13 33                	adc    (%rbx),%esi
  405554:	ad                   	lods   %ds:(%rsi),%eax
  405555:	14 21                	adc    $0x21,%al
  405557:	39 30                	cmp    %esi,(%rax)
  405559:	2a 00                	sub    (%rax),%al
  40555b:	1a 39                	sbb    (%rcx),%bh
  40555d:	9e                   	sahf   
  40555e:	0f 13 36             	movlps %xmm6,(%rsi)
  405561:	15 08 1f 35 58       	adc    $0x58351f08,%eax
  405566:	03 02                	add    (%rdx),%eax
  405568:	12 36                	adc    (%rsi),%dh
  40556a:	15 08 0f 29 2c       	adc    $0x2c290f08,%eax
  40556f:	41 1f                	rex.B (bad) 
  405571:	36                   	ss
  405572:	15 08 7c 0f de       	adc    $0xde0f7c08,%eax
  405577:	04 0c                	add    $0xc,%al
  405579:	2f                   	(bad)  
  40557a:	39 32                	cmp    %esi,(%rdx)
  40557c:	2f                   	(bad)  
  40557d:	13 02                	adc    (%rdx),%eax
  40557f:	2f                   	(bad)  
  405580:	39 33                	cmp    %esi,(%rbx)
  405582:	2f                   	(bad)  
  405583:	13 04 02             	adc    (%rdx,%rax,1),%eax
  405586:	7b 07                	jnp    40558f <fatbinData+0x10e7>
  405588:	2a 39                	sub    (%rcx),%bh
  40558a:	33 eb                	xor    %ebx,%ebp
  40558c:	07                   	(bad)  
  40558d:	00 7d 31             	add    %bh,0x31(%rbp)
  405590:	05 1c 00 18 32       	add    $0x3218001c,%eax
  405595:	51                   	push   %rcx
  405596:	08 00                	or     %al,(%rax)
  405598:	68 06 02 20 00       	pushq  $0x200206
  40559d:	0b 4f 08             	or     0x8(%rdi),%ecx
  4055a0:	02 62 06             	add    0x6(%rdx),%ah
  4055a3:	2b 39                	sub    (%rcx),%edi
  4055a5:	36 4d 08 24 39       	rex.WRB or %r12b,%ss:(%r9,%rdi,1)
  4055aa:	38 30                	cmp    %dh,(%rax)
  4055ac:	00 09                	add    %cl,(%rcx)
  4055ae:	60                   	(bad)  
  4055af:	00 26                	add    %ah,(%rsi)
  4055b1:	39 2c 33             	cmp    %ebp,(%rbx,%rsi,1)
  4055b4:	00 1f                	add    %bl,(%rdi)
  4055b6:	38 f2                	cmp    %dh,%dl
  4055b8:	02 07                	add    (%rdi),%al
  4055ba:	2a 39                	sub    (%rcx),%bh
  4055bc:	39 05 02 03 47 08    	cmp    %eax,0x8470302(%rip)        # 88758c4 <_end+0x826c50c>
  4055c2:	1f                   	(bad)  
  4055c3:	36                   	ss
  4055c4:	05 02 03 02 46       	add    $0x46020302,%eax
  4055c9:	08 1f                	or     %bl,(%rdi)
  4055cb:	36 46 08 40 1f       	rex.RX or %r8b,%ss:0x1f(%rax)
  4055d0:	36 46 08 7d 2f       	rex.RX or %r15b,%ss:0x2f(%rbp)
  4055d5:	30 30                	xor    %dh,(%rax)
  4055d7:	e4 06                	in     $0x6,%al
  4055d9:	0b 1f                	or     (%rdi),%ebx
  4055db:	30 36                	xor    %dh,(%rsi)
  4055dd:	15 03 2f 31 30       	adc    $0x30312f03,%eax
  4055e2:	37                   	(bad)  
  4055e3:	15 05 01 9f 46       	adc    $0x469f0105,%eax
  4055e8:	03 21                	add    (%rcx),%esp
  4055ea:	00 09                	add    %cl,(%rcx)
  4055ec:	f5                   	cmc    
  4055ed:	09 00                	or     %eax,(%rax)
  4055ef:	d9 3d 07 1f 00 09    	fnstcw 0x9001f07(%rip)        # 94074fc <_end+0x8dfe144>
  4055f5:	3c 15                	cmp    $0x15,%al
  4055f7:	01 f6                	add    %esi,%esi
  4055f9:	34 03                	xor    $0x3,%al
  4055fb:	24 00                	and    $0x0,%al
  4055fd:	0c 5e                	or     $0x5e,%al
  4055ff:	0a 12                	or     (%rdx),%dl
  405601:	30 26                	xor    %ah,(%rsi)
  405603:	0a 1d 30 5e 0a 25    	or     0x250a5e30(%rip),%bl        # 254ab439 <_end+0x24ea2081>
  405609:	30 37                	xor    %dh,(%rdi)
  40560b:	34 00                	xor    $0x0,%al
  40560d:	0a 69 00             	or     0x0(%rcx),%ch
  405610:	28 38                	sub    %bh,(%rax)
  405612:	2c 38                	sub    $0x38,%al
  405614:	00 26                	add    %ah,(%rsi)
  405616:	37                   	(bad)  
  405617:	3b e9                	cmp    %ecx,%ebp
  405619:	0c 01                	or     $0x1,%al
  40561b:	9c                   	pushfq 
  40561c:	07                   	(bad)  
  40561d:	24 34                	and    $0x34,%al
  40561f:	2c 26                	sub    $0x26,%al
  405621:	00 32                	add    %dh,(%rdx)
  405623:	32 30                	xor    (%rax),%dh
  405625:	35 2d 15 16 34       	xor    $0x3416152d,%eax
  40562a:	a1 07 00 47 06 0f 5e 	movabs 0xce225e0f06470007,%eax
  405631:	22 ce 
  405633:	2f                   	(bad)  
  405634:	31 30                	xor    %esi,(%rax)
  405636:	3d 0a 0c 2f 31       	cmp    $0x312f0c0a,%eax
  40563b:	30 60 22             	xor    %ah,0x22(%rax)
  40563e:	02 01                	add    (%rcx),%al
  405640:	69 35 0f 61 22 02 01 	imul   $0x338f801,0x222610f(%rip),%esi        # 262b759 <_end+0x20223a1>
  405647:	f8 38 03 
  40564a:	21 00                	and    %eax,(%rax)
  40564c:	09 8e 01 03 ea 2b    	or     %ecx,0x2bea0301(%rsi)
  405652:	04 1f                	add    $0x1f,%al
  405654:	00 1a                	add    %bl,(%rdx)
  405656:	30 35 00 02 8c 01    	xor    %dh,0x18c0200(%rip)        # 1cc585c <_end+0x16bc4a4>
  40565c:	1c 31                	sbb    $0x31,%al
  40565e:	91                   	xchg   %eax,%ecx
  40565f:	21 01                	and    %eax,(%rcx)
  405661:	a6                   	cmpsb  %es:(%rdi),%ds:(%rsi)
  405662:	35 03 20 00 0d       	xor    $0xd002003,%eax
  405667:	93                   	xchg   %eax,%ebx
  405668:	21 01                	and    %eax,(%rcx)
  40566a:	be 35 06 36 00       	mov    $0x360635,%esi
  40566f:	07                   	(bad)  
  405670:	6b 00 28             	imul   $0x28,(%rax),%eax
  405673:	37                   	(bad)  
  405674:	2c 3c                	sub    $0x3c,%al
  405676:	00 18                	add    %bl,(%rax)
  405678:	36                   	ss
  405679:	b8 00 1f 38 70       	mov    $0x70381f00,%eax
  40567e:	22 02                	and    (%rdx),%al
  405680:	01 69 40             	add    %ebp,0x40(%rcx)
  405683:	0f 71                	(bad)  
  405685:	22 00                	and    (%rax),%al
  405687:	01 55 37             	add    %edx,0x37(%rbp)
  40568a:	0f 72                	(bad)  
  40568c:	22 02                	and    (%rdx),%al
  40568e:	01 5e 4b             	add    %ebx,0x4b(%rsi)
  405691:	03 21                	add    (%rcx),%esp
  405693:	00 09                	add    %cl,(%rcx)
  405695:	7d 00                	jge    405697 <fatbinData+0x11ef>
  405697:	00 5c 23 06          	add    %bl,0x6(%rbx,%riz,1)
  40569b:	1f                   	(bad)  
  40569c:	00 2a                	add    %ch,(%rdx)
  40569e:	31 39                	xor    %edi,(%rcx)
  4056a0:	35 00 03 ef 2c       	xor    $0x2cef0300,%eax
  4056a5:	1c 32                	sbb    $0x32,%al
  4056a7:	e8 00 02 82 23       	callq  23c258ac <_end+0x2361c4f4>
  4056ac:	01 20                	add    %esp,(%rax)
  4056ae:	00 0e                	add    %cl,(%rsi)
  4056b0:	e8 00 28 32 35       	callq  35727eb5 <_end+0x3511eafd>
  4056b5:	36 00 06             	add    %al,%ss:(%rsi)
  4056b8:	9c                   	pushfq 
  4056b9:	00 1f                	add    %bl,(%rdi)
  4056bb:	36                   	ss
  4056bc:	7e 22                	jle    4056e0 <fatbinData+0x1238>
  4056be:	02 3f                	add    (%rdi),%bh
  4056c0:	31 32                	xor    %esi,(%rdx)
  4056c2:	37                   	(bad)  
  4056c3:	7f 22                	jg     4056e7 <fatbinData+0x123f>
  4056c5:	04 12                	add    $0x12,%al
  4056c7:	31 86 23 01 21 00    	xor    %eax,0x210123(%rsi)
  4056cd:	0a b4 00 28 39 2c 1f 	or     0x1f2c3928(%rax,%rax,1),%dh
  4056d4:	00 19                	add    %bl,(%rcx)
  4056d6:	36                   	ss
  4056d7:	35 00 00 8c 23       	xor    $0x238c0000,%eax
  4056dc:	03 24 00             	add    (%rax,%rax,1),%esp
  4056df:	0a b4 00 02 56 34 01 	or     0x1345602(%rax,%rax,1),%dh
  4056e6:	20 00                	and    %al,(%rax)
